(dp1
VAngryVoodooZombie
p2
Vx
sVHiredgun
p3
Vx
sVCorpse
p4
Vx
sV1157098120.05jasyeung
p5
Vx
sVJOLLY_ROGER
p6
Vx
sV1181607808.0dxschafe
p7
Vx
sVCaptMudmoss
p8
Vx
sVSwampTerror
p9
Vx
sVHUNTER_RED_DERVISH
p10
Vx
sVDouse
p11
Vx
sV1196901888.0dxschafe
p12
Vx
sVDevilwing
p13
Vx
sV1201224743.34dxschafe
p14
Vx
sV1291327895.46jloehrle
p15
I0
sVHMS_INVINCIBLE
p16
Vx
sV1201109074.66dxschafe
p17
Vx
sVSKEL_HELLHOUND_SP
p18
Vx
sVNAVY_COLOSSUS
p19
Vx
sVDragoon
p20
Vx
sV1232496514.28WDIG
p21
Vx
sVFireBat
p22
Vx
sVEITC_OGRE
p23
Vx
sVPressGangVoodooZombie
p24
Vx
sVThaddeusWoodworm
p25
Vx
sVAlligator
p26
Vx
sV1220906480.53mtucker
p27
Vx
sVHUNTER_TALLYHO
p28
Vx
sVStoneCrab
p29
Vx
sVHUNTER_CENTURY_HAWK
p30
Vx
sV1216766113.92aapatel
p31
Vx
sVMarine
p32
Vx
sVSilentStinger
p33
Vx
sVDrench
p34
Vx
sVEITC_CORSAIR
p35
Vx
sVBat
p36
Vx
sVNathanielGrimm
p37
Vx
sVBigGator
p38
Vx
sVSKEL_BLOOD_SCOURGE_SP
p39
Vx
sV1186098688.0dxschafe
p40
Vx
sV1196904064.0dxschafe
p41
Vx
sVEITC_JUGGERNAUT
p42
Vx
sVOfficer
p43
Vx
sV1169075869.81mike
p44
Vx
sVAssassin
p45
Vx
sV1216249894.26aapatel
p46
Vx
sVEITC_MARAUDER
p47
Vx
sVQuestProp
p48
Vx
sVSidShiver
p49
Vx
sV1219352693.09mtucker
p50
Vx
sV1157098184.94jasyeung
p51
Vx
sVHUNTER_EN_GARDE
p52
Vx
sVEdwardLohand
p53
Vx
sVFLYING_DUTCHMAN
p54
Vx
sVWillBurybones
p55
Vx
sVHugeGator
p56
Vx
sV1181605248.0dxschafe
p57
Vx
sVManRipper
p58
Vx
sVNAVY_FERRET
p59
Vx
sV1201028352.0dxschafe
p60
Vx
sVDireScorpion
p61
Vx
sVGiantCrab
p62
Vx
sV1303260680.08jloehrle
p63
Vx
sVDreadScorpion
p64
Vx
sVEITC_BLOODHOUND
p65
Vx
sVSoldierWasp
p66
Vx
sVEITC_CORVETTE
p67
Vx
sVSKEL_BLACK_HARBINGER
p68
Vx
sVDamp
p69
Vx
sVScorpion
p70
Vx
sVNAVY_CENTURION
p71
Vx
sVMuck
p72
Vx
sVCarlosCudgel
p73
Vx
sV1303331892.2jloehrle
p74
Vx
sVCorpseCutlass
p75
Vx
sV1181606272.0dxschafe
p76
Vx
sVJeremyColdhand
p77
Vx
sVHMS_VICTORY
p78
Vx
sVCadaverCutlass
p79
Vx
sVSKEL_HELLHOUND_FR
p80
Vx
sVTwistedStump
p81
Vx
sVMire
p82
Vx
sVBowbreaker
p83
Vx
sV1219428571.98mtucker
p84
Vx
sV1219434293.16mtucker
p85
Vx
sVSKEL_BLOOD_SCOURGE_FR
p86
Vx
sVEITC_WARLORD
p87
Vx
sV1201228098.28dxschafe
p88
Vx
sVNAVY_GREYHOUND
p89
Vx
sVHUNTER_VENGEANCE
p90
Vx
sVKillerWasp
p91
Vx
sV1157098075.78jasyeung
p92
Vx
sVFlytrap
p93
Vx
sVEITC_BEHEMOTH
p94
Vx
sV1181171584.0dxschafe0
p95
Vx
sV1175553664.0dxschafe
p96
Vx
sVThadIllFortune
p97
Vx
sVSKEL_SHADOW_CROW_SP
p98
Vx
sVGeoffreyPain
p99
Vx
sVSKEL_PHANTOM
p100
Vx
sVNAVY_PANTHER
p101
Vx
sVWhitWidowmaker
p102
Vx
sVSKEL_DEATH_OMEN
p103
Vx
sVNAVY_KINGFISHER
p104
Vx
sVSludge
p105
Vx
sVEITC_INTREPID
p106
Vx
sVFiresting
p107
Vx
sV1157098037.86jasyeung
p108
Vx
sV1201025280.0dxschafe
p109
Vx
sV1169077081.52mike
p110
Vx
sVEITC_IRONWALL
p111
Vx
sVCaptBriney
p112
Vx
sVSwabbieVoodooZombie
p113
Vx
sVSKEL_STORM_REAPER
p114
Vx
sVAngryWasp
p115
Vx
sV1203451240.81akelts
p116
Vx
sVSHIP_OF_THE_LINE
p117
Vx
sVMutineerGhost
p118
Vx
sVGideonGrog
p119
Vx
sV1218760329.71mtucker
p120
Vx
sV1219426331.38mtucker
p121
Vx
sVRancidFlytrap
p122
Vx
sV1157097924.52jasyeung
p123
Vx
sVHenryFlint
p124
Vx
sVAncientFlytrap
p125
Vx
sVEITC_SENTINEL
p126
Vx
sV1286991539.99gcarranza
p127
Vx
sVCrusherCrab
p128
Vx
sV1181260928.0dxschafe
p129
Vx
sVRipTail
p130
Vx
sV1201227181.3dxschafe
p131
Vx
sV1165199931.31Shochet
p132
Vx
sVTrapjaw
p133
Vx
sVFrancisFaust
p134
Vx
sVBayouGator
p135
Vx
sVFishMed
p136
Vx
sV1218760328.71mtucker
p137
Vx
sV1286991877.14gcarranza
p138
Vx
sVDrool
p139
Vx
sVCadaver
p140
Vx
sVFishSmall
p141
Vx
sVBlackheart
p142
Vx
sVZombie
p143
Vx
sV1201226462.13dxschafe
p144
Vx
sVSpanishUndeadC
p145
Vx
sVSpanishUndeadB
p146
Vx
sVSpanishUndeadA
p147
Vx
sV1201223902.67dxschafe
p148
Vx
sVSpanishUndeadD
p149
Vx
sVTraitorGhost
p150
Vx
sVHUNTER_BATTLEROYALE
p151
Vx
sV1181260288.0dxschafe
p152
Vx
sV1213983053.36aapatel
p153
Vx
sVRockCrab
p154
Vx
sVGrunt
p155
Vx
sVFoulCrenshaw
p156
Vx
sV1196896512.0dxschafe
p157
Vx
sV1219424341.05mtucker
p158
Vx
sVSimonButcher
p159
Vx
sVRevenant
p160
Vx
sVSlaveDriverVoodooZombie
p161
Vx
sVDrip
p162
Vx
sVMuckCutlass
p163
Vx
sVCarrion
p164
Vx
sVZachariahSharp
p165
Vx
sVFishLarge
p166
Vx
sVCarrionKnife
p167
Vx
sVClod
p168
Vx
sVStump
p169
Vx
sVNAVY_MONARCH
p170
Vx
sVEITC_LEVIATHAN
p171
Vx
sVWasp
p172
Vx
sVDeviousGhost
p173
Vx
sVSnapDragon
p174
Vx
sVFrenchUndeadA
p175
Vx
sVFrenchUndeadB
p176
Vx
sVFrenchUndeadC
p177
Vx
sVFrenchUndeadD
p178
Vx
sVBonecracker
p179
Vx
sV1177714944.0mike
p180
Vx
sVRabidBat
p181
Vx
sVIanRamjaw
p182
Vx
sVEITC_SEA_VIPER
p183
Vx
sVDrizzle
p184
Vx
sVNAVY_MAN_O_WAR
p185
Vx
sVStench
p186
Vx
sV1196907776.0dxschafe0
p187
Vx
sVHughBrandish
p188
Vx
sVSandStalker
p189
Vx
sVFrightfang
p190
Vx
sVVeteran
p191
Vx
sVPhineasFowl
p192
Vx
sVMakeAPirate
p193
Vx
sV1244832512.0jloehrle
p194
Vx
sVSergeant
p195
Vx
sVCrab
p196
Vx
sV1196898944.0dxschafe
p197
Vx
sV1244657664.0jloehrle1
p198
Vx
sVNAVY_DREADNOUGHT
p199
Vx
sV1157094552.02jasyeung
p200
Vx
sV1219425030.24mtucker
p201
Vx
sVClawChief
p202
Vx
sV1286922173.8gcarranza
p203
Vx
sVMireKnife
p204
Vx
sVHMS_NEWCASTLE
p205
Vx
sVHUNTER_FLYING_STORM
p206
Vx
sV1244833920.0jloehrle
p207
Vx
sVSKEL_SHADOW_CROW_FR
p208
Vx
sV1176186151.42mike
p209
Vx
sV1201230131.11dxschafe
p210
Vx
sVOfficerVoodooZombie
p211
Vx
sVSpray
p212
Vx
sVNAVY_VANGUARD
p213
Vx
sV1219277508.79mtucker
p214
Vx
sVLookoutVoodooZombie
p215
Vx
sVHUNTER_KILLYADED
p216
Vx
sV1237497701.52piwanow
p217
Vx
sV1286984549.68gcarranza
p218
Vx
sV1227583229.75WDIG
p219
Vx
sVCookVoodooZombie
p220
Vx
sVEvanTheDigger
p221
Vx
sV1157097816.67jasyeung
p222
Vx
sVMercenary
p223
Vx
sVBloodleach
p224
Vx
sVNAVY_PREDATOR
p225
Vx
sV1219339266.79mtucker
p226
Vx
sV1202419919.16akelts
p227
Vx
sVHUNTER_SCORNED_SIREN
p228
Vx
sV1227674362.91WDIG
p229
Vx
sVGOLIATH
p230
Vx
sVVampireBat
p231
Vx
sVCadet
p232
Vx
sV1219367627.94mtucker
p233
Vx
sVRageGhost
p234
I0
sVSplatter
p235
Vx
sVEITC_BARRACUDA
p236
Vx
sVSKEL_REVENANT
p237
Vx
sV1169079172.34sdnaik
p238
Vx
sVHUNTER_CUTTER_SHARK
p239
Vx
sVGuard
p240
Vx
sV1237499258.14piwanow
p241
Vx
sVNAVY_BULWARK
p242
Vx
sV1244583168.0jloehrle0
p243
Vx
sVThug
p244
Vx
sVBonebreaker
p245
Vx
sVEITC_CONQUERER
p246
Vx
s.