(dp1
VAngryVoodooZombie
p2
I0
sVHiredgun
p3
I0
sVCorpse
p4
I0
sV1157098120.05jasyeung
p5
I0
sVJOLLY_ROGER
p6
I0
sV1181607808.0dxschafe
p7
I0
sVCaptMudmoss
p8
I0
sVSwampTerror
p9
I0
sVHUNTER_RED_DERVISH
p10
I1
sVDouse
p11
I0
sV1196901888.0dxschafe
p12
I0
sVDevilwing
p13
I0
sV1201224743.34dxschafe
p14
I0
sV1291327895.46jloehrle
p15
I0
sVHMS_INVINCIBLE
p16
I0
sV1201109074.66dxschafe
p17
I0
sVSKEL_HELLHOUND_SP
p18
I0
sVNAVY_COLOSSUS
p19
I0
sVDragoon
p20
I0
sV1232496514.28WDIG
p21
I0
sVFireBat
p22
I0
sVEITC_OGRE
p23
I0
sVPressGangVoodooZombie
p24
I0
sVThaddeusWoodworm
p25
I0
sVAlligator
p26
I0
sV1220906480.53mtucker
p27
I0
sVHUNTER_TALLYHO
p28
I2
sVStoneCrab
p29
I0
sVHUNTER_CENTURY_HAWK
p30
I1
sV1216766113.92aapatel
p31
I0
sVMarine
p32
I0
sVSilentStinger
p33
I0
sVDrench
p34
I0
sVEITC_CORSAIR
p35
I0
sVBat
p36
I0
sVNathanielGrimm
p37
I0
sVBigGator
p38
I0
sVSKEL_BLOOD_SCOURGE_SP
p39
I0
sV1186098688.0dxschafe
p40
I0
sV1196904064.0dxschafe
p41
I0
sVEITC_JUGGERNAUT
p42
I0
sVOfficer
p43
I0
sV1169075869.81mike
p44
I0
sVAssassin
p45
I0
sV1216249894.26aapatel
p46
I0
sVEITC_MARAUDER
p47
I0
sVQuestProp
p48
I0
sVSidShiver
p49
I0
sV1219352693.09mtucker
p50
I0
sV1157098184.94jasyeung
p51
I0
sVHUNTER_EN_GARDE
p52
I2
sVEdwardLohand
p53
I0
sVFLYING_DUTCHMAN
p54
I0
sVWillBurybones
p55
I0
sVHugeGator
p56
I0
sV1181605248.0dxschafe
p57
I0
sVManRipper
p58
I0
sVNAVY_FERRET
p59
I0
sV1201028352.0dxschafe
p60
I0
sVDireScorpion
p61
I0
sVGiantCrab
p62
I0
sV1303260680.08jloehrle
p63
I0
sVDreadScorpion
p64
I0
sVEITC_BLOODHOUND
p65
I0
sVSoldierWasp
p66
I0
sVEITC_CORVETTE
p67
I0
sVSKEL_BLACK_HARBINGER
p68
I0
sVDamp
p69
I0
sVScorpion
p70
I0
sVNAVY_CENTURION
p71
I0
sVMuck
p72
I0
sVCarlosCudgel
p73
I0
sV1303331892.2jloehrle
p74
I0
sVCorpseCutlass
p75
I0
sV1181606272.0dxschafe
p76
I0
sVJeremyColdhand
p77
I0
sVHMS_VICTORY
p78
I0
sVCadaverCutlass
p79
I0
sVSKEL_HELLHOUND_FR
p80
I0
sVTwistedStump
p81
I0
sVMire
p82
I0
sVBowbreaker
p83
I0
sV1219428571.98mtucker
p84
I0
sV1219434293.16mtucker
p85
I0
sVSKEL_BLOOD_SCOURGE_FR
p86
I0
sVEITC_WARLORD
p87
I0
sV1201228098.28dxschafe
p88
I0
sVNAVY_GREYHOUND
p89
I0
sVHUNTER_VENGEANCE
p90
I1
sVKillerWasp
p91
I0
sV1157098075.78jasyeung
p92
I0
sVFlytrap
p93
I0
sVEITC_BEHEMOTH
p94
I0
sV1181171584.0dxschafe0
p95
I0
sV1175553664.0dxschafe
p96
I0
sVThadIllFortune
p97
I0
sVSKEL_SHADOW_CROW_SP
p98
I0
sVGeoffreyPain
p99
I0
sVSKEL_PHANTOM
p100
I0
sVNAVY_PANTHER
p101
I0
sVWhitWidowmaker
p102
I0
sVSKEL_DEATH_OMEN
p103
I0
sVNAVY_KINGFISHER
p104
I0
sVSludge
p105
I0
sVEITC_INTREPID
p106
I0
sVFiresting
p107
I0
sV1157098037.86jasyeung
p108
I0
sV1201025280.0dxschafe
p109
I0
sV1169077081.52mike
p110
I0
sVEITC_IRONWALL
p111
I0
sVCaptBriney
p112
I0
sVSwabbieVoodooZombie
p113
I0
sVSKEL_STORM_REAPER
p114
I0
sVAngryWasp
p115
I0
sV1203451240.81akelts
p116
I0
sVSHIP_OF_THE_LINE
p117
I0
sVMutineerGhost
p118
I0
sVGideonGrog
p119
I0
sV1218760329.71mtucker
p120
I0
sV1219426331.38mtucker
p121
I0
sVRancidFlytrap
p122
I0
sV1157097924.52jasyeung
p123
I0
sVHenryFlint
p124
I0
sVAncientFlytrap
p125
I0
sVEITC_SENTINEL
p126
I0
sV1286991539.99gcarranza
p127
I0
sVCrusherCrab
p128
I0
sV1181260928.0dxschafe
p129
I0
sVRipTail
p130
I0
sV1201227181.3dxschafe
p131
I0
sV1165199931.31Shochet
p132
I0
sVTrapjaw
p133
I0
sVFrancisFaust
p134
I0
sVBayouGator
p135
I0
sVFishMed
p136
I0
sV1218760328.71mtucker
p137
I0
sV1286991877.14gcarranza
p138
I0
sVDrool
p139
I0
sVCadaver
p140
I0
sVFishSmall
p141
I0
sVBlackheart
p142
I0
sVZombie
p143
I0
sV1201226462.13dxschafe
p144
I0
sVSpanishUndeadC
p145
I0
sVSpanishUndeadB
p146
I0
sVSpanishUndeadA
p147
I0
sV1201223902.67dxschafe
p148
I0
sVSpanishUndeadD
p149
I0
sVTraitorGhost
p150
I0
sVHUNTER_BATTLEROYALE
p151
I2
sV1181260288.0dxschafe
p152
I0
sV1213983053.36aapatel
p153
I0
sVRockCrab
p154
I0
sVGrunt
p155
I0
sVFoulCrenshaw
p156
I0
sV1196896512.0dxschafe
p157
I0
sV1219424341.05mtucker
p158
I0
sVSimonButcher
p159
I0
sVRevenant
p160
I0
sVSlaveDriverVoodooZombie
p161
I0
sVDrip
p162
I0
sVMuckCutlass
p163
I0
sVCarrion
p164
I0
sVZachariahSharp
p165
I0
sVFishLarge
p166
I0
sVCarrionKnife
p167
I0
sVClod
p168
I0
sVStump
p169
I0
sVNAVY_MONARCH
p170
I0
sVEITC_LEVIATHAN
p171
I0
sVWasp
p172
I0
sVDeviousGhost
p173
I0
sVSnapDragon
p174
I0
sVFrenchUndeadA
p175
I0
sVFrenchUndeadB
p176
I0
sVFrenchUndeadC
p177
I0
sVFrenchUndeadD
p178
I0
sVBonecracker
p179
I0
sV1177714944.0mike
p180
I0
sVRabidBat
p181
I0
sVIanRamjaw
p182
I0
sVEITC_SEA_VIPER
p183
I0
sVDrizzle
p184
I0
sVNAVY_MAN_O_WAR
p185
I0
sVStench
p186
I0
sV1196907776.0dxschafe0
p187
I0
sVHughBrandish
p188
I0
sVSandStalker
p189
I0
sVFrightfang
p190
I0
sVVeteran
p191
I0
sVPhineasFowl
p192
I0
sVMakeAPirate
p193
I0
sV1244832512.0jloehrle
p194
I0
sVSergeant
p195
I0
sVCrab
p196
I0
sV1196898944.0dxschafe
p197
I0
sV1244657664.0jloehrle1
p198
I0
sVNAVY_DREADNOUGHT
p199
I0
sV1157094552.02jasyeung
p200
I0
sV1219425030.24mtucker
p201
I0
sVClawChief
p202
I0
sV1286922173.8gcarranza
p203
I0
sVMireKnife
p204
I0
sVHMS_NEWCASTLE
p205
I0
sVHUNTER_FLYING_STORM
p206
I1
sV1244833920.0jloehrle
p207
I0
sVSKEL_SHADOW_CROW_FR
p208
I0
sV1176186151.42mike
p209
I0
sV1201230131.11dxschafe
p210
I0
sVOfficerVoodooZombie
p211
I0
sVSpray
p212
I0
sVNAVY_VANGUARD
p213
I0
sV1219277508.79mtucker
p214
I0
sVLookoutVoodooZombie
p215
I0
sVHUNTER_KILLYADED
p216
I1
sV1237497701.52piwanow
p217
I0
sV1286984549.68gcarranza
p218
I0
sV1227583229.75WDIG
p219
I0
sVCookVoodooZombie
p220
I0
sVEvanTheDigger
p221
I0
sV1157097816.67jasyeung
p222
I0
sVMercenary
p223
I0
sVBloodleach
p224
I0
sVNAVY_PREDATOR
p225
I0
sV1219339266.79mtucker
p226
I0
sV1202419919.16akelts
p227
I0
sVHUNTER_SCORNED_SIREN
p228
I1
sV1227674362.91WDIG
p229
I0
sVGOLIATH
p230
I0
sVVampireBat
p231
I0
sVCadet
p232
I0
sV1219367627.94mtucker
p233
I0
sVRageGhost
p234
I0
sVSplatter
p235
I0
sVEITC_BARRACUDA
p236
I0
sVSKEL_REVENANT
p237
I0
sV1169079172.34sdnaik
p238
I0
sVHUNTER_CUTTER_SHARK
p239
I1
sVGuard
p240
I0
sV1237499258.14piwanow
p241
I0
sVNAVY_BULWARK
p242
I0
sV1244583168.0jloehrle0
p243
I0
sVThug
p244
I0
sVBonebreaker
p245
I0
sVEITC_CONQUERER
p246
I0
s.