(dp1
I2060
(lp2
I13713
aI1
aNaNaI1
aI0
aI0
aI0
aI0
aI0
aI0
aI0
aI80
aF0.25
aI2
aI15
aI0
aI0
aI0
aI0
aI1
aI0
aI3
aI0
aI0
aI26
aI0
aI0
aI1
aI0
aI0
aI1
aI3
aI0
aI-1
aI0
aF0.10000000000000001
aI1
aI0
aI1
aI1
aI0
aI0
aI0
aI0
aI0
aI0
aI0
aI0
aI0
aVcutlass_stab
p3
aI0
aI1
aI1
aI0
aI0
asI2061
(lp4
I13713
aI1
aNaNaI1
aI0
aI0
aI0
aI0
aI0
aI0
aI0
aI80
aF0.25
aI2
aI15
aI0
aI0
aI0
aI0
aI1
aI0
aI0
aI0
aI0
aI26
aI0
aI0
aI1
aI0
aI0
aI1
aI3
aI0
aI-1
aI0
aF0.10000000000000001
aI1
aI0
aI1
aI1
aI0
aI0
aI0
aI0
aI0
aI0
aI0
aI0
aI0
aVcutlass_stab
p5
aI0
aI1
aI1
aI0
aI0
asI2062
(lp6
I13713
aI1
aNaNaI1
aI0
aI0
aI0
aI0
aI0
aI0
aI0
aI80
aF0.25
aI2
aI15
aI0
aI0
aI0
aI0
aI1
aI0
aI0
aI0
aI0
aI26
aI0
aI0
aI1
aI0
aI0
aI1
aI3
aI0
aI-1
aI0
aF0.10000000000000001
aI1
aI0
aI1
aI1
aI0
aI0
aI0
aI0
aI0
aI0
aI0
aI0
aI0
aVcutlass_stab
p7
aI0
aI1
aI1
aI0
aI0
asI2063
(lp8
I13713
aI1
aNaNaI1
aI0
aI0
aI0
aI0
aI0
aI0
aI0
aI80
aF0.25
aI2
aI120
aI0
aI0
aI0
aI0
aI1
aI0
aI0
aI0
aI0
aI21
aI0
aI0
aI1
aI0
aI0
aI1
aI10
aI2
aI-1
aI0
aF1.2
aI1
aI0
aI1
aI1
aI0
aI0
aI0
aI0
aI0
aI0
aI0
aI0
aI0
aVcutlass_stab
p9
aI8
aI1
aI1
aI0
aI0
asI2064
(lp10
I13713
aI1
aNaNaI1
aI0
aI0
aI0
aI0
aI0
aI0
aI0
aI80
aF0.25
aI2
aI15
aI0
aI0
aI0
aI0
aI1
aI0
aI0
aI0
aI0
aI26
aI0
aI0
aI1
aI0
aI0
aI1
aI3
aI0
aI-1
aI0
aF0.10000000000000001
aI3
aI0
aI1
aI1
aI0
aI0
aI0
aI0
aI0
aI0
aI0
aI0
aI0
aVcutlass_stab
p11
aI0
aI1
aF1.25
aI0
aI0
asI2065
(lp12
I13713
aI1
aNaNaI1
aI0
aI0
aI0
aI0
aI0
aI0
aI0
aI80
aF0.25
aI2
aI120
aI0
aI0
aI0
aI0
aI1
aI0
aI0
aI0
aI0
aI5
aI0
aI0
aI1
aI0
aI0
aI1
aI10
aI2
aI-1
aI0
aF1.2
aI1
aI0
aI1
aI1
aI0
aI0
aI0
aI0
aI0
aI0
aI0
aI0
aI0
aVcutlass_stab
p13
aI8
aI1
aI1
aI0
aI0
asI2080
(lp14
I0
aI0
aNaNaI0
aI0
aI0
aI0
aI0
aI0
aI0
aI0
aI100
aI0
aI1
aI0
aI0
aI0
aI0
aI0
aI1
aI0
aI0
aI0
aI0
aI0
aI0
aI0
aI0
aI0
aI0
aI0
aI0
aI0
aI-1
aI0
aF0.10000000000000001
aI1
aI0
aI1
aI1
aI0
aI0
aI0
aI0
aI0
aI0
aI0
aI1
aI1
aVsail_open_fire
p15
aI0
aI0
aI1
aF1.1599999999999999
aI0
asI2081
(lp16
I0
aI0
aNaNaI0
aI0
aI0
aI0
aI0
aI0
aI0
aI0
aI100
aI0
aI0
aI0
aI0
aI0
aI0
aI0
aI1
aI0
aI0
aI0
aI0
aI0
aI0
aI0
aI0
aI0
aI0
aI0
aI0
aI0
aI-1
aI0
aF0.10000000000000001
aI1
aI0
aI1
aI1
aI0
aI0
aI0
aI0
aI0
aI0
aI0
aI1
aI1
aVpistol_take_aim
p17
aI0
aI0
aI1
aI0
aI0
asI2100
(lp18
I0
aI0
aNaNaI0
aI0
aI0
aI0
aI0
aI0
aI0
aI0
aI100
aI0
aI0
aI0
aI0
aI0
aI0
aI0
aI1
aI0
aI0
aI0
aI0
aI0
aI0
aI0
aI0
aI0
aI0
aI0
aI0
aI0
aI-1
aI0
aF0.10000000000000001
aI1
aI0
aI1
aI1
aI0
aI0
aI0
aI0
aI0
aI0
aI0
aI1
aI1
aVstaff_sparks
p19
aI0
aI0
aI1
aI0
aI0
asI2101
(lp20
I0
aI0
aNaNaI0
aI0
aI0
aI0
aI0
aI0
aI0
aI0
aI100
aI0
aI0
aI0
aI0
aI0
aI0
aI0
aI1
aI0
aI0
aI0
aI0
aI0
aI0
aI0
aI0
aI0
aI0
aI0
aI0
aI0
aI-1
aI0
aF0.10000000000000001
aI1
aI0
aI1
aI0
aI0
aI0
aI0
aI0
aI0
aI0
aI0
aI1
aI1
aVstaff_sparks
p21
aI0
aI0
aI1
aI0
aI0
asI2102
(lp22
I0
aI0
aNaNaI0
aI0
aI0
aI0
aI0
aI0
aI0
aI0
aI100
aI0
aI0
aI0
aI0
aI0
aI0
aI0
aI1
aI0
aI0
aI0
aI0
aI0
aI0
aI0
aI0
aI0
aI0
aI0
aI0
aI0
aI-1
aI0
aF0.10000000000000001
aI1
aI0
aI1
aI0
aI0
aI0
aI0
aI0
aI0
aI0
aI0
aI1
aI1
aVstaff_frostbeam
p23
aI0
aI0
aI1
aI0
aI0
asI2103
(lp24
I0
aI0
aNaNaI0
aI0
aI0
aI0
aI0
aI0
aI0
aI0
aI100
aI0
aI0
aI0
aI0
aI0
aI0
aI0
aI1
aI0
aI0
aI0
aI0
aI0
aI0
aI0
aI0
aI0
aI0
aI0
aI0
aI0
aI-1
aI0
aF0.10000000000000001
aI1
aI0
aI1
aI0
aI0
aI0
aI0
aI0
aI0
aI0
aI0
aI1
aI1
aVstaff_pestilence
p25
aI0
aI0
aI1
aI0
aI0
asI2104
(lp26
I0
aI0
aNaNaI0
aI0
aI0
aI0
aI0
aI0
aI0
aI0
aI100
aI0
aI0
aI0
aI0
aI0
aI0
aI0
aI1
aI0
aI0
aI0
aI0
aI0
aI0
aI0
aI0
aI0
aI0
aI0
aI0
aI0
aI-1
aI0
aF0.10000000000000001
aI1
aI0
aI1
aI0
aI0
aI0
aI0
aI0
aI0
aI0
aI0
aI1
aI1
aVstaff_fire
p27
aI0
aI0
aI1
aI0
aI0
asI2105
(lp28
I0
aI0
aNaNaI0
aI0
aI0
aI0
aI0
aI0
aI0
aI0
aI100
aI0
aI0
aI0
aI0
aI0
aI0
aI0
aI1
aI0
aI0
aI0
aI0
aI0
aI0
aI0
aI0
aI0
aI0
aI0
aI0
aI0
aI-1
aI0
aF0.10000000000000001
aI1
aI0
aI1
aI0
aI0
aI0
aI0
aI0
aI0
aI0
aI0
aI1
aI1
aVstaff_deluge
p29
aI0
aI0
aI1
aI0
aI0
asI2106
(lp30
I0
aI0
aNaNaI0
aI0
aI0
aI0
aI0
aI0
aI0
aI0
aI100
aI0
aI0
aI0
aI0
aI0
aI0
aI0
aI1
aI0
aI0
aI0
aI0
aI0
aI0
aI0
aI0
aI0
aI0
aI0
aI0
aI0
aI-1
aI0
aF0.10000000000000001
aI1
aI0
aI1
aI0
aI0
aI0
aI0
aI0
aI0
aI0
aI0
aI1
aI1
aVstaff_shockwave
p31
aI0
aI0
aI1
aI0
aI0
asI2120
(lp32
I0
aI0
aNaNaI0
aI0
aI0
aI0
aI0
aI0
aI0
aI0
aI100
aI0
aI1
aI0
aI0
aI0
aI0
aI0
aI1
aI0
aI0
aI0
aI0
aI0
aI0
aI0
aI0
aI0
aI0
aI0
aI0
aI0
aI-1
aI0
aF0.10000000000000001
aI1
aI0
aI1
aI1
aI0
aI0
aI0
aI0
aI0
aI0
aI0
aI1
aI1
aVgrenade_throw
p33
aI0
aI2
aI1
aI2
aI0
asI2121
(lp34
I0
aI0
aNaNaI0
aI0
aI0
aI0
aI0
aI0
aI0
aI0
aI100
aI0
aI0
aI0
aI0
aI0
aI0
aI0
aI1
aI0
aI0
aI0
aI0
aI0
aI0
aI0
aI0
aI0
aI0
aI0
aI0
aI0
aI-1
aI0
aF0.10000000000000001
aI1
aI0
aI1
aI1
aI0
aI0
aI0
aI0
aI0
aI0
aI0
aI1
aI1
aVgrenade_strength
p35
aI0
aI2
aI1
aI0
aI0
asI2140
(lp36
I13713
aI1
aNaNaI1
aI0
aI0
aI0
aI0
aI0
aI0
aI0
aI90
aF0.25
aI2
aI6
aI0
aI0
aI0
aI0
aI1
aI0
aI0
aI0
aI0
aI26
aI0
aI0
aI1
aI0
aI0
aI1
aI3
aI0
aI-1
aI0
aF0.10000000000000001
aI1
aI0
aI1
aI1
aI0
aI0
aI0
aI0
aI0
aI0
aI0
aI0
aI0
aVcutlass_stab
p37
aI0
aI1
aI1
aI0
aI0
asI2141
(lp38
I13713
aI1
aNaNaI1
aI0
aI0
aI0
aI0
aI0
aI0
aI0
aI90
aF0.25
aI2
aI6
aI0
aI0
aI0
aI0
aI1
aI0
aI0
aI0
aI0
aI26
aI0
aI0
aI1
aI0
aI0
aI1
aI3
aI0
aI-1
aI0
aF0.10000000000000001
aI1
aI0
aI1
aI1
aI0
aI0
aI0
aI0
aI0
aI0
aI0
aI0
aI0
aVcutlass_stab
p39
aI0
aI1
aI1
aI0
aI0
asI2142
(lp40
I13713
aI1
aNaNaI1
aI0
aI0
aI0
aI0
aI0
aI0
aI0
aI90
aF0.25
aI2
aI6
aI0
aI0
aI0
aI0
aI1
aI0
aI0
aI0
aI0
aI26
aI0
aI0
aI1
aI0
aI0
aI1
aI3
aI0
aI-1
aI0
aF0.10000000000000001
aI1
aI0
aI1
aI1
aI0
aI0
aI0
aI0
aI0
aI0
aI0
aI0
aI0
aVcutlass_stab
p41
aI0
aI1
aF1.5
aI0
aI0
asI2143
(lp42
I13713
aI1
aNaNaI1
aI0
aI0
aI0
aI0
aI0
aI0
aI0
aI90
aF0.25
aI10
aI12
aI0
aI0
aI0
aI0
aI1
aI0
aI0
aI0
aI0
aI4
aI0
aI0
aI1
aI0
aI0
aI1
aI4
aI2
aI-1
aI0
aF0.10000000000000001
aI1
aI0
aI1
aI1
aI0
aI0
aI0
aI0
aI0
aI0
aI0
aI0
aI0
aVcutlass_stab
p43
aI10
aI1
aF0.5
aI0
aI0
asI2144
(lp44
I13713
aI1
aNaNaI1
aI0
aI0
aI0
aI0
aI0
aI0
aI0
aI90
aF0.25
aI6
aI6
aI0
aI0
aI0
aI0
aI1
aI0
aI0
aI0
aI0
aI26
aI0
aI0
aI1
aI0
aI0
aI1
aI3
aI0
aI-1
aI0
aF0.10000000000000001
aI1
aI0
aI1
aI1
aI0
aI0
aI0
aI0
aI0
aI0
aI0
aI0
aI0
aVcutlass_stab
p45
aI0
aI1
aI2
aI0
aI0
asI2145
(lp46
I13713
aI1
aNaNaI1
aI0
aI0
aI0
aI0
aI0
aI0
aI0
aI90
aF0.25
aI15
aI6
aI0
aI0
aI0
aI0
aI1
aI0
aI0
aI0
aI0
aI26
aI0
aI0
aI1
aI0
aI0
aI1
aI6
aI0
aI-1
aI0
aF0.10000000000000001
aI1
aI0
aI1
aI1
aI0
aI0
aI0
aI0
aI0
aI0
aI0
aI0
aI0
aVcutlass_stab
p47
aI0
aI1
aF0.75
aI0
aI0
asI2160
(lp48
I13713
aI1
aNaNaI1
aI0
aI0
aI0
aI0
aI0
aI0
aI0
aI90
aF0.25
aI2
aI6
aI0
aI0
aI0
aI0
aI1
aI0
aI0
aI0
aI0
aI26
aI0
aI0
aI1
aI0
aI0
aI1
aI3
aI0
aI-1
aI0
aF0.10000000000000001
aI1
aI0
aI1
aI1
aI0
aI0
aI0
aI0
aI0
aI0
aI0
aI0
aI0
aVcutlass_stab
p49
aI0
aI1
aI1
aI0
aI0
asI2161
(lp50
I13713
aI1
aNaNaI1
aI0
aI0
aI0
aI0
aI0
aI0
aI0
aI90
aF0.25
aI2
aI6
aI0
aI0
aI0
aI0
aI1
aI0
aI0
aI0
aI0
aI26
aI0
aI0
aI1
aI0
aI0
aI1
aI3
aI0
aI-1
aI0
aF0.10000000000000001
aI1
aI0
aI1
aI1
aI0
aI0
aI0
aI0
aI0
aI0
aI0
aI0
aI0
aVcutlass_stab
p51
aI0
aI1
aI1
aI0
aI0
asI2162
(lp52
I13713
aI1
aNaNaI1
aI0
aI0
aI0
aI0
aI0
aI0
aI0
aI90
aF0.25
aI2
aI6
aI0
aI0
aI0
aI0
aI1
aI0
aI0
aI0
aI0
aI26
aI0
aI0
aI1
aI0
aI0
aI1
aI3
aI0
aI-1
aI0
aF0.10000000000000001
aI1
aI0
aI1
aI1
aI0
aI0
aI0
aI0
aI0
aI0
aI0
aI0
aI0
aVcutlass_stab
p53
aI0
aI1
aF1.25
aI0
aI0
asI2163
(lp54
I13713
aI1
aNaNaI1
aI0
aI0
aI0
aI0
aI0
aI0
aI0
aI90
aF0.25
aI25
aI6
aI0
aI0
aI0
aI0
aI1
aI0
aI0
aI0
aI0
aI4
aI0
aI0
aI1
aI0
aI0
aI1
aI6
aI2
aI-1
aI0
aF0.10000000000000001
aI1
aI0
aI1
aI1
aI0
aI0
aI0
aI0
aI0
aI0
aI0
aI0
aI0
aVcutlass_stab
p55
aI10
aI1
aF0.75
aI0
aI0
asI2164
(lp56
I13713
aI1
aNaNaI1
aI0
aI0
aI0
aI0
aI0
aI0
aI0
aI90
aF0.25
aI18
aI6
aI0
aI0
aI0
aI0
aI1
aI0
aI0
aI0
aI0
aI26
aI0
aI0
aI1
aI0
aI0
aI1
aI6
aI0
aI-1
aI0
aF0.10000000000000001
aI1
aI0
aI1
aI1
aI0
aI0
aI0
aI0
aI0
aI0
aI0
aI0
aI0
aVcutlass_stab
p57
aI6
aI1
aF1.5
aI0
aI0
asI12405
(lp58
I13706
aI0
aNaNaI0
aI0
aI0
aI0
aI0
aI0
aI0
aI0
aI0
aF0.050000000000000003
aI0
aI0
aI0
aI0
aI0
aI0
aI0
aI0
aI0
aI0
aI0
aI0
aI0
aI0
aI0
aI0
aI0
aI0
aI0
aI0
aI-1
aI0
aI0
aI0
aI0
aI3
aI0
aI0
aI0
aI0
aI0
aI0
aI0
aI0
aI0
aI0
aVdagger_blade_instinct
p59
aI0
aI0
aI1
aI0
aI0
asI12406
(lp60
I13706
aI2
aI14300
aNaI2
aI0
aI0
aI0
aI-10
aI0
aI0
aI0
aI80
aF0.25
aI15
aI50
aI0
aI0
aI0
aI0
aI1
aI0
aI0
aI1
aI1
aI7
aI0
aI0
aI1
aI0
aI1
aI1
aI6
aI0
aI25
aI0
aF0.80000000000000004
aI1
aI0
aI2
aI1
aI0
aI0
aI0
aI0
aI0
aI0
aI0
aI1
aI1
aVdagger_throw
p61
aI16
aI0
aI1
aF1.8300000000000001
aI0
asI12407
(lp62
I13706
aI2
aI14301
aNaI4
aI0
aI0
aI0
aI-20
aI0
aI0
aI0
aI80
aF0.25
aI15
aI50
aI0
aI0
aI0
aI0
aI1
aI0
aI0
aI0
aI0
aI5
aI0
aI0
aI1
aI0
aI1
aI1
aI20
aI2
aI25
aI0
aF0.80000000000000004
aI1
aI0
aI2
aI1
aI0
aI0
aI0
aI0
aI0
aI0
aI0
aI1
aI1
aVdagger_adder
p63
aI8
aI0
aI1
aF1.8300000000000001
aI0
asI12408
(lp64
I13706
aI2
aNaNaI6
aI0
aI0
aI0
aI0
aI0
aI0
aI0
aI80
aF0.25
aI25
aI12
aI0
aI0
aI0
aI0
aI1
aI0
aI0
aI1
aI1
aI19
aI0
aI0
aI1
aI0
aI0
aI1
aI6
aI0
aI-1
aI0
aF0.80000000000000004
aI1
aI0
aI2
aI0
aI0
aI0
aI0
aI0
aI0
aI0
aI0
aI1
aI1
aVdagger_throw_dirt
p65
aI18
aI1
aI1
aF1.5800000000000001
aI0
asI12409
(lp66
I13706
aI2
aI14302
aNaI8
aI0
aI0
aI0
aI-60
aI0
aI0
aI0
aI80
aF0.25
aI20
aI50
aI0
aI0
aI0
aI0
aI1
aI0
aI0
aI0
aI0
aI4
aI0
aI0
aI1
aI0
aI1
aI1
aI6
aI2
aI25
aI0
aF0.80000000000000004
aI1
aI0
aI2
aI1
aI0
aI0
aI0
aI0
aI0
aI0
aI0
aI0
aI0
aVdagger_sidewinder
p67
aI10
aI0
aI1
aI1
aI0
asI12410
(lp68
I13706
aI2
aI14303
aNaI10
aI0
aI0
aI0
aI-120
aI0
aI0
aI0
aI80
aF0.25
aI45
aI50
aI0
aI0
aI0
aI0
aI1
aI0
aI2
aI1
aI1
aI0
aI0
aI0
aI1
aI0
aI0
aI0
aI0
aI0
aI25
aI0
aF0.80000000000000004
aI3
aI0
aI2
aI0
aI0
aI0
aI0
aI0
aI0
aI0
aI0
aI0
aI0
aVdagger_vipers_nest
p69
aI30
aI2
aI1
aF0.83299999999999996
aI0
asI2180
(lp70
I13713
aI1
aNaNaI1
aI0
aI0
aI0
aI0
aI0
aI0
aI0
aI90
aF0.25
aI2
aI6
aI0
aI0
aI0
aI0
aI1
aI0
aI0
aI0
aI0
aI26
aI0
aI0
aI1
aI0
aI0
aI1
aI3
aI0
aI-1
aI0
aF0.10000000000000001
aI1
aI0
aI1
aI1
aI0
aI0
aI0
aI0
aI0
aI0
aI0
aI0
aI0
aVcutlass_stab
p71
aI0
aI1
aI1
aI0
aI0
asI2181
(lp72
I13713
aI1
aNaNaI1
aI0
aI0
aI0
aI0
aI0
aI0
aI0
aI90
aF0.25
aI2
aI6
aI0
aI0
aI0
aI0
aI1
aI0
aI0
aI0
aI0
aI26
aI0
aI0
aI1
aI0
aI0
aI1
aI3
aI0
aI-1
aI0
aF0.10000000000000001
aI1
aI0
aI1
aI1
aI0
aI0
aI0
aI0
aI0
aI0
aI0
aI0
aI0
aVcutlass_stab
p73
aI0
aI1
aI1
aI0
aI0
asI2182
(lp74
I13713
aI1
aNaNaI1
aI0
aI0
aI0
aI0
aI0
aI0
aI0
aI90
aF0.25
aI20
aI10
aI10
aI0
aI0
aI0
aI1
aI1
aI1
aI0
aI0
aI14
aI0
aI0
aI1
aI0
aI0
aI1
aI4
aI0
aI-1
aI0
aF0.10000000000000001
aI1
aI0
aI1
aI1
aI0
aI0
aI0
aI0
aI0
aI0
aI0
aI0
aI0
aVcutlass_stab
p75
aI0
aI1
aF0.80000000000000004
aI0
aI0
asI2183
(lp76
I13713
aI1
aNaNaI1
aI0
aI0
aI0
aI0
aI0
aI0
aI0
aI90
aF0.25
aI15
aI6
aI0
aI0
aI0
aI0
aI1
aI0
aI0
aI0
aI0
aI26
aI0
aI0
aI1
aI0
aI0
aI1
aI3
aI0
aI-1
aI0
aF0.10000000000000001
aI4
aI0
aI1
aI1
aI0
aI0
aI0
aI0
aI0
aI0
aI0
aI0
aI0
aVcutlass_stab
p77
aI0
aI1
aF1.5
aI0
aI0
asI2200
(lp78
I13713
aI1
aNaNaI1
aI0
aI0
aI0
aI0
aI0
aI0
aI0
aI90
aF0.25
aI2
aI6
aI0
aI0
aI0
aI0
aI1
aI0
aI0
aI0
aI0
aI26
aI0
aI0
aI1
aI0
aI0
aI1
aI3
aI0
aI-1
aI0
aF0.10000000000000001
aI1
aI0
aI1
aI1
aI0
aI0
aI0
aI0
aI0
aI0
aI0
aI0
aI0
aVcutlass_stab
p79
aI0
aI1
aI1
aI0
aI0
asI2201
(lp80
I13713
aI1
aNaNaI1
aI0
aI0
aI0
aI0
aI0
aI0
aI0
aI90
aF0.25
aI2
aI6
aI0
aI0
aI0
aI0
aI1
aI0
aI0
aI0
aI0
aI26
aI0
aI0
aI1
aI0
aI0
aI1
aI3
aI0
aI-1
aI0
aF0.10000000000000001
aI1
aI0
aI1
aI1
aI0
aI0
aI0
aI0
aI0
aI0
aI0
aI0
aI0
aVcutlass_stab
p81
aI0
aI1
aI1
aI0
aI0
asI2202
(lp82
I13713
aI1
aNaNaI1
aI0
aI0
aI0
aI0
aI0
aI0
aI0
aI90
aF0.25
aI25
aI6
aI0
aI0
aI0
aI0
aI1
aI0
aI0
aI0
aI0
aI5
aI0
aI0
aI1
aI0
aI0
aI1
aI12
aI2
aI-1
aI0
aF0.10000000000000001
aI1
aI0
aI1
aI1
aI0
aI0
aI0
aI0
aI0
aI0
aI0
aI0
aI0
aVcutlass_stab
p83
aI0
aI1
aF0.25
aI0
aI0
asI2203
(lp84
I13713
aI1
aNaNaI1
aI0
aI0
aI0
aI0
aI0
aI0
aI0
aI90
aF0.25
aI25
aI6
aI0
aI0
aI0
aI0
aI1
aI0
aI0
aI0
aI0
aI14
aI0
aI0
aI1
aI0
aI0
aI1
aI6
aI0
aI-1
aI0
aF0.10000000000000001
aI1
aI0
aI1
aI1
aI0
aI0
aI0
aI0
aI0
aI0
aI0
aI0
aI0
aVcutlass_stab
p85
aI0
aI1
aF1.25
aI0
aI0
asI2220
(lp86
I13712
aI5
aNaNaI1
aI1
aI0
aI0
aI0
aI0
aI0
aI0
aI100
aI0
aI0
aI-1
aI0
aI0
aI0
aI0
aI0
aI0
aI0
aI0
aI0
aI0
aI0
aI0
aI0
aI0
aI0
aI0
aI0
aI0
aI-1
aI0
aI0
aI1
aI0
aI1
aI1
aI0
aI0
aI0
aI0
aI0
aI0
aI0
aI1
aI1
aVcannon_shoot
p87
aI6
aI1
aI1
aI0
aI0
asI2221
(lp88
I13712
aI5
aNaNaI1
aI1
aI0
aI0
aI0
aI0
aI0
aI0
aI100
aI0
aI0
aI-1
aI0
aI0
aI0
aI0
aI0
aI0
aI0
aI0
aI0
aI0
aI0
aI0
aI0
aI0
aI0
aI0
aI0
aI0
aI-1
aI0
aI0
aI1
aI0
aI1
aI1
aI0
aI0
aI0
aI0
aI0
aI0
aI0
aI1
aI1
aVcannon_shoot
p89
aI6
aI1
aI1
aI0
aI0
asI2238
(lp90
I13703
aI1
aNaNaI0
aI0
aI0
aI0
aI0
aI0
aI0
aI0
aI100
aF0.25
aI20
aI0
aI0
aI0
aI1
aI0
aI1
aI0
aI0
aI0
aI0
aI159
aI0
aI0
aI0
aI0
aI0
aI0
aI12
aI0
aI-1
aI0
aF0.59999999999999998
aI1
aI0
aI5
aI0
aI0
aI0
aI0
aI0
aI0
aI0
aI0
aI1
aI1
aVcutlass_parry
p91
aI45
aI0
aI1
aF1.4199999999999999
aI0
asI2239
(lp92
I13703
aI1
aNaNaI2
aI0
aI0
aI0
aI-200
aI0
aI0
aI0
aI100
aF0.25
aI15
aI6
aI0
aI0
aI0
aI0
aI1
aI0
aI0
aI1
aI1
aI156
aI0
aI0
aI1
aI0
aI0
aI1
aI6
aI0
aI-1
aI0
aF0.5
aI2
aI0
aI5
aI0
aI0
aI0
aI0
aI0
aI0
aI0
aI0
aI0
aI1
aVdagger_cut
p93
aI42
aI1
aF1.5
aI1
aI0
asI2240
(lp94
I13703
aI1
aNaNaI1
aI0
aI0
aI0
aI-30
aI0
aI0
aI0
aI80
aF0.25
aI2
aI6
aI0
aI0
aI0
aI0
aI1
aI0
aI0
aI0
aI0
aI26
aI0
aI0
aI1
aI0
aI0
aI1
aI6
aI0
aI-1
aI0
aF0.22
aI1
aI0
aI1
aI1
aI0
aI0
aI0
aI0
aI0
aI0
aI0
aI0
aI0
aVcutlass_finesse
p95
aI3
aI1
aI1
aI1
aI0
asI2241
(lp96
I13703
aI1
aNaNaI1
aI0
aI0
aI0
aI-30
aI0
aI0
aI0
aI100
aF0.25
aI2
aI6
aI0
aI0
aI0
aI0
aI1
aI0
aI0
aI0
aI0
aI26
aI0
aI0
aI1
aI0
aI0
aI1
aI3
aI0
aI-1
aI0
aF0.22
aI2
aI0
aI1
aI1
aI0
aI0
aI0
aI0
aI0
aI0
aI0
aI0
aI0
aVcutlass_finesse
p97
aI1
aI1
aF1.2
aI1
aI0
asI2242
(lp98
I13703
aI1
aNaNaI1
aI0
aI0
aI0
aI-30
aI0
aI0
aI0
aI95
aF0.25
aI2
aI10
aI0
aI0
aI0
aI0
aI1
aI0
aI3
aI0
aI0
aI7
aI0
aI0
aI1
aI0
aI0
aI1
aI5
aI0
aI-1
aI0
aF0.22
aI1
aI0
aI1
aI1
aI0
aI0
aI0
aI0
aI0
aI0
aI0
aI0
aI0
aVcutlass_finesse
p99
aI29
aI1
aF1.2
aI1
aI0
asI2243
(lp100
I13703
aI1
aNaNaI1
aI0
aI0
aI0
aI-30
aI0
aI0
aI0
aI100
aF0.25
aI2
aI10
aI0
aI0
aI0
aI0
aI1
aI0
aI3
aI0
aI0
aI26
aI0
aI0
aI1
aI0
aI0
aI1
aI3
aI0
aI-1
aI0
aF0.22
aI1
aI0
aI1
aI1
aI0
aI0
aI0
aI0
aI0
aI0
aI0
aI0
aI0
aVcutlass_finesse
p101
aI29
aI1
aF0.75
aI1
aI0
asI2244
(lp102
I13703
aI1
aNaNaI1
aI0
aI0
aI0
aI-100
aI0
aI0
aI0
aI80
aF0.25
aI10
aI40
aI0
aI0
aI0
aI0
aI1
aI0
aI2
aI0
aI0
aI26
aI0
aI0
aI1
aI0
aI0
aI1
aI3
aI0
aI-1
aI0
aI1
aI1
aI0
aI1
aI0
aI0
aI0
aI0
aI0
aI0
aI0
aI0
aI0
aI0
aVdagger_dodge
p103
aI3
aI1
aI2
aF1.5
aI0
asI2245
(lp104
I13703
aI1
aNaNaI1
aI0
aI0
aI0
aI-30
aI0
aI0
aI0
aI100
aF0.25
aI2
aI6
aI0
aI0
aI0
aI0
aI1
aI0
aI0
aI0
aI0
aI26
aI0
aI0
aI1
aI0
aI0
aI1
aI3
aI0
aI-1
aI0
aF0.22
aI3
aI0
aI1
aI1
aI0
aI0
aI0
aI0
aI0
aI0
aI0
aI0
aI0
aVcutlass_finesse
p105
aI1
aI1
aI1
aI1
aI0
asI2246
(lp106
I13703
aI1
aNaNaI1
aI0
aI0
aI0
aI-30
aI0
aI0
aI0
aI50
aF0.25
aI10
aI6
aI0
aI0
aI0
aI0
aI1
aI0
aI0
aI0
aI0
aI4
aI0
aI0
aI1
aI0
aI0
aI1
aI5
aI2
aI-1
aI0
aF0.22
aI1
aI0
aI1
aI1
aI0
aI0
aI0
aI0
aI0
aI0
aI0
aI0
aI0
aVcutlass_finesse
p107
aI1
aI1
aF1.5
aI1
aI0
asI2247
(lp108
I13703
aI1
aNaNaI1
aI0
aI0
aI0
aI-30
aI0
aI0
aI0
aI100
aF0.25
aI6
aI6
aI0
aI0
aI0
aI0
aI1
aI0
aI0
aI0
aI0
aI26
aI0
aI0
aI1
aI0
aI0
aI1
aI4
aI0
aI-1
aI0
aF0.22
aI3
aI0
aI1
aI1
aI0
aI0
aI0
aI0
aI0
aI0
aI0
aI0
aI0
aVcutlass_finesse
p109
aI1
aI1
aI2
aI1
aI0
asI2248
(lp110
I13703
aI1
aNaNaI1
aI0
aI0
aI0
aI-30
aI0
aI0
aI0
aI100
aF0.25
aI10
aI6
aI0
aI0
aI0
aI0
aI1
aI0
aI0
aI0
aI0
aI14
aI0
aI0
aI1
aI0
aI0
aI1
aI3
aI0
aI-1
aI0
aF0.22
aI1
aI0
aI1
aI1
aI0
aI0
aI0
aI0
aI0
aI0
aI0
aI0
aI0
aVcutlass_finesse
p111
aI1
aI1
aF0.75
aI1
aI0
asI2250
(lp112
I13703
aI1
aNaNaI1
aI0
aI0
aI0
aI0
aI0
aI0
aI0
aI100
aF0.25
aI2
aI7
aI0
aI0
aI0
aI0
aI1
aI0
aI0
aI0
aI0
aI0
aI0
aI0
aI0
aI0
aI0
aI0
aI0
aI0
aI-1
aI0
aF0.22
aI1
aI0
aI1
aI1
aI0
aI0
aI0
aI0
aI0
aI0
aI0
aI0
aI0
aVcutlass_finesse
p113
aI1
aI1
aI1
aI1
aI0
asI2251
(lp114
I13703
aI1
aNaNaI1
aI0
aI0
aI0
aI0
aI0
aI0
aI0
aI80
aF0.25
aI2
aI7
aI0
aI0
aI0
aI0
aI1
aI0
aI0
aI0
aI0
aI0
aI0
aI0
aI0
aI0
aI0
aI0
aI0
aI0
aI-1
aI0
aF0.22
aI2
aI0
aI1
aI1
aI0
aI0
aI0
aI0
aI0
aI0
aI0
aI0
aI0
aVcutlass_finesse
p115
aI1
aI1
aF0.75
aI1
aI0
asI2252
(lp116
I13703
aI1
aNaNaI1
aI0
aI0
aI0
aI0
aI0
aI0
aI0
aI100
aF0.25
aI2
aI7
aI0
aI0
aI0
aI0
aI1
aI0
aI0
aI0
aI0
aI0
aI0
aI0
aI0
aI0
aI0
aI0
aI0
aI0
aI-1
aI0
aF0.44
aI1
aI0
aI1
aI1
aI0
aI0
aI0
aI0
aI0
aI0
aI0
aI0
aI0
aVcutlass_finesse
p117
aI1
aI1
aI1
aI1
aI0
asI2253
(lp118
I13703
aI1
aNaNaI1
aI0
aI0
aI0
aI0
aI0
aI0
aI0
aI100
aF0.25
aI6
aI7
aI0
aI0
aI0
aI0
aI1
aI0
aI0
aI0
aI0
aI4
aI0
aI0
aI0
aI0
aI0
aI1
aI10
aI2
aI-1
aI0
aF0.22
aI1
aI0
aI1
aI1
aI0
aI0
aI0
aI0
aI0
aI0
aI0
aI0
aI0
aVcutlass_finesse
p119
aI1
aI1
aI1
aI1
aI0
asI2254
(lp120
I13703
aI1
aNaNaI1
aI0
aI0
aI0
aI0
aI0
aI0
aI0
aI75
aF0.25
aI8
aI7
aI0
aI0
aI0
aI0
aI1
aI0
aI0
aI0
aI0
aI4
aI0
aI0
aI0
aI0
aI0
aI1
aI10
aI2
aI-1
aI0
aF0.22
aI2
aI0
aI1
aI1
aI0
aI0
aI0
aI0
aI0
aI0
aI0
aI0
aI0
aVcutlass_finesse
p121
aI1
aI1
aF0.75
aI1
aI0
asI2256
(lp122
I13703
aI1
aNaNaI1
aI0
aI0
aI0
aI0
aI0
aI0
aI0
aI80
aF0.25
aI10
aI7
aI0
aI0
aI0
aI0
aI1
aI0
aI0
aI1
aI1
aI0
aI0
aI0
aI0
aI0
aI0
aI0
aI0
aI0
aI-1
aI0
aF0.80000000000000004
aI1
aI0
aI1
aI1
aI0
aI0
aI0
aI0
aI0
aI0
aI0
aI0
aI0
aVcutlass_finesse
p123
aI1
aI1
aF0.75
aI1
aI0
asI2257
(lp124
I13703
aI1
aNaNaI1
aI0
aI0
aI0
aI0
aI0
aI0
aI0
aI100
aF0.25
aI12
aI7
aI0
aI0
aI0
aI0
aI1
aI0
aI0
aI0
aI0
aI0
aI0
aI0
aI0
aI0
aI0
aI0
aI0
aI0
aI-1
aI0
aF0.22
aI4
aI0
aI1
aI1
aI0
aI0
aI0
aI0
aI0
aI0
aI0
aI0
aI0
aVcutlass_finesse
p125
aI1
aI1
aI2
aI1
aI0
asI12500
(lp126
I13707
aI4
aNaNaI2
aI1
aI0
aI0
aI-20
aI0
aI0
aI0
aI100
aF0.25
aI2
aI200
aI0
aI1
aI0
aI0
aI1
aI0
aI0
aI0
aI0
aI0
aI0
aI0
aI0
aI0
aI0
aI0
aI0
aI0
aI-1
aI0
aI0
aI1
aI0
aI1
aI1
aI0
aI0
aI0
aI0
aI0
aI0
aI0
aI1
aI1
aVgrenade_grenadier
p127
aI0
aI2
aI1
aI2
aI0
asI2261
(lp128
I13709
aI3
aNaNaI4
aI0
aI0
aI-8
aI-65
aI0
aI0
aI0
aI100
aF0.25
aI4
aI130
aI0
aI0
aI0
aI0
aI1
aI0
aI0
aI0
aI0
aI0
aI0
aI0
aI1
aI0
aI0
aI0
aI0
aI0
aI-1
aI0
aF0.59999999999999998
aI1
aI0
aI2
aI1
aI0
aI0
aI0
aI0
aI0
aI0
aI0
aI1
aI1
aVvoodoo_poke
p129
aI20
aI2
aF0.5
aF2.0800000000000001
aI0
asI12502
(lp130
I13707
aI4
aI14101
aNaF1.5
aI1
aI0
aI0
aI-50
aI0
aI0
aI0
aI100
aF0.25
aI1
aI50
aI20
aI1
aI0
aI0
aI1
aI40
aI1
aI0
aI0
aI7
aI0
aI0
aI0
aI0
aI0
aI1
aI10
aI0
aI25
aI0
aI0
aI1
aI1
aI2
aI1
aI0
aI0
aI0
aI0
aI0
aI0
aI0
aI1
aI1
aVgrenade_flameburst
p131
aI0
aI2
aI1
aI0
aI0
asI12503
(lp132
I13707
aI4
aI14102
aNaI2
aI1
aI0
aI0
aI-50
aI0
aI0
aI0
aI100
aF0.25
aI1
aI50
aI10
aI1
aI0
aI0
aI1
aI40
aI1
aI0
aI0
aI3
aI0
aI0
aI0
aI0
aI0
aI1
aI20
aI2
aI25
aI0
aI0
aI1
aI1
aI2
aI1
aI0
aI0
aI0
aI0
aI0
aI0
aI0
aI0
aI0
aVgrenade_explosion
p133
aI9
aI2
aI1
aI0
aI0
asI12504
(lp134
I13707
aI4
aI14103
aNaI2
aI1
aI0
aI0
aI0
aI0
aI0
aI0
aI100
aF0.25
aI1
aI50
aI14
aI1
aI0
aI0
aI1
aI40
aI1
aI0
aI0
aI9
aI0
aI0
aI0
aI0
aI0
aI1
aI10
aI0
aI15
aI0
aI0
aI1
aI1
aI2
aI1
aI0
aI0
aI0
aI0
aI0
aI0
aI0
aI0
aI0
aVgrenade_smokecloud
p135
aI0
aI2
aI1
aI0
aI0
asI12505
(lp136
I13707
aI4
aI14105
aNaI2
aI1
aI0
aI0
aI-150
aI0
aI0
aI0
aI100
aF0.25
aI1
aI10
aI20
aI1
aI0
aI0
aI1
aI40
aI1
aI0
aI0
aI7
aI0
aI0
aI0
aI0
aI0
aI1
aI3
aI0
aI10
aI0
aI0
aI1
aI1
aI2
aI0
aI0
aI0
aI0
aI0
aI0
aI0
aI0
aI0
aI0
aVgrenade_siege
p137
aI0
aI2
aI1
aI0
aI0
asI12506
(lp138
I13707
aI4
aNaNaI2
aI1
aI0
aI0
aI-40
aI0
aI0
aI0
aI100
aF0.25
aI2
aI400
aI0
aI1
aI0
aI0
aI1
aI0
aI0
aI0
aI0
aI0
aI0
aI0
aI0
aI0
aI0
aI0
aI0
aI0
aI-1
aI2
aI0
aI1
aI0
aI1
aI0
aI0
aI0
aI0
aI0
aI0
aI0
aI0
aI1
aI1
aVgrenade_strength
p139
aI0
aI2
aI1
aF1.875
aI0
asI12507
(lp140
I13707
aI0
aNaNaI0
aI0
aI0
aI0
aI0
aI0
aI0
aI0
aI0
aF0.10000000000000001
aI0
aI0
aI0
aI0
aI0
aI0
aI0
aI0
aI0
aI0
aI0
aI0
aI0
aI0
aI0
aI0
aI0
aI0
aI0
aI0
aI-1
aI0
aI0
aI0
aI0
aI3
aI0
aI0
aI0
aI0
aI0
aI0
aI0
aI0
aI1
aI1
aVgrenade_determination2
p141
aI0
aI0
aI1
aI0
aI0
asI12508
(lp142
I13707
aI0
aNaNaI0
aI0
aI0
aI0
aI0
aI0
aI0
aI0
aI0
aF0.10000000000000001
aI0
aI0
aI0
aI0
aI0
aI0
aI0
aI0
aI0
aI0
aI0
aI0
aI0
aI0
aI0
aI0
aI0
aI0
aI0
aI0
aI-1
aI0
aI0
aI0
aI0
aI3
aI0
aI0
aI0
aI0
aI0
aI0
aI0
aI0
aI0
aI0
aVgrenade_demolition
p143
aI0
aI0
aI1
aI0
aI0
asI12509
(lp144
I13707
aI0
aNaNaI0
aI0
aI0
aI0
aI0
aI0
aI0
aI0
aI0
aF0.029999999999999999
aI0
aI0
aI0
aI0
aI0
aI0
aI0
aI0
aI0
aI0
aI0
aI0
aI0
aI0
aI0
aI0
aI0
aI0
aI0
aI0
aI-1
aI0
aI0
aI0
aI0
aI3
aI0
aI0
aI0
aI0
aI0
aI0
aI0
aI0
aI0
aI0
aVgrenade_determination
p145
aI0
aI0
aI1
aI0
aI0
asI12510
(lp146
I13707
aI0
aNaNaI0
aI0
aI0
aI0
aI0
aI0
aI0
aI0
aI0
aF0.10000000000000001
aI0
aI0
aI0
aI0
aI0
aI0
aI0
aI0
aI0
aI0
aI0
aI0
aI0
aI0
aI0
aI0
aI0
aI0
aI0
aI0
aI-1
aI0
aI0
aI0
aI0
aI3
aI0
aI0
aI0
aI0
aI0
aI0
aI0
aI0
aI0
aI0
aVcannon_toughness
p147
aI0
aI0
aI1
aI0
aI0
asI2271
(lp148
I13706
aI2
aNaI12400
aI4
aI0
aI0
aI0
aI-9
aI0
aI0
aI0
aI80
aF0.25
aF0.5
aI50
aI0
aI0
aI0
aI0
aI1
aI0
aI0
aI0
aI0
aI26
aI0
aI0
aI1
aI0
aI1
aI1
aI3
aI0
aI-1
aI0
aF0.80000000000000004
aI1
aI0
aI1
aI1
aI0
aI0
aI0
aI0
aI0
aI0
aI0
aI0
aI0
aVdagger_throw
p149
aI16
aI0
aI1
aI1
aI0
asI2272
(lp150
I13706
aI2
aNaI12401
aI4
aI0
aI0
aI0
aI-20
aI0
aI0
aI0
aI80
aF0.25
aF0.5
aI50
aI0
aI0
aI0
aI0
aI1
aI0
aI0
aI0
aI0
aI26
aI0
aI0
aI1
aI0
aI1
aI1
aI3
aI0
aI-1
aI0
aF0.80000000000000004
aI1
aI0
aI1
aI1
aI0
aI0
aI0
aI0
aI0
aI0
aI0
aI0
aI0
aVdagger_sidewinder
p151
aI16
aI0
aI1
aI1
aI0
asI2273
(lp152
I13706
aI2
aNaI12402
aI4
aI0
aI0
aI0
aI-33
aI0
aI0
aI0
aI80
aF0.25
aF0.5
aI50
aI0
aI0
aI0
aI0
aI1
aI0
aI0
aI0
aI0
aI26
aI0
aI0
aI1
aI0
aI1
aI1
aI3
aI0
aI-1
aI0
aF0.80000000000000004
aI1
aI0
aI1
aI1
aI0
aI0
aI0
aI0
aI0
aI0
aI0
aI0
aI0
aVdagger_impale
p153
aI16
aI0
aI1
aI1
aI0
asI2274
(lp154
I13706
aI2
aNaI12403
aI4
aI0
aI0
aI0
aI-51
aI0
aI0
aI0
aI80
aF0.25
aF0.5
aI50
aI0
aI0
aI0
aI0
aI1
aI0
aI0
aI0
aI0
aI26
aI0
aI0
aI1
aI0
aI1
aI1
aI3
aI0
aI-1
aI0
aF0.80000000000000004
aI1
aI0
aI1
aI1
aI0
aI0
aI0
aI0
aI0
aI0
aI0
aI0
aI0
aVdagger_vipers_nest
p155
aI16
aI0
aI1
aI1
aI0
asI2275
(lp156
I13706
aI2
aNaNaI4
aI0
aI0
aI0
aI-50
aI0
aI0
aI0
aI80
aF0.25
aI60
aI30
aI30
aI0
aI0
aI0
aI1
aI0
aI1
aI0
aI0
aI164
aI0
aI0
aI0
aI0
aI1
aI1
aI3
aI0
aI-1
aI0
aF0.80000000000000004
aI1
aI0
aI1
aI1
aI0
aI0
aI0
aI0
aI0
aI0
aI0
aI0
aI0
aVpir_t_gui_amo_can_iceshot
p157
aI13
aI2
aI1
aI1
aI1
asI2280
(lp158
I13706
aI2
aNaNaI1
aI0
aI0
aI0
aI0
aI0
aI0
aI0
aI80
aF0.25
aI5
aI100
aI0
aI0
aI0
aI0
aI1
aI0
aI0
aI0
aI0
aI0
aI0
aI0
aI1
aI0
aI1
aI0
aI0
aI0
aI-1
aI0
aF0.80000000000000004
aI1
aI0
aI2
aI1
aI0
aI0
aI0
aI0
aI0
aI0
aI0
aI0
aI0
aVdagger_throw
p159
aI16
aI0
aI1
aF1.8300000000000001
aI0
asI2281
(lp160
I13706
aI2
aNaNaI1
aI0
aI0
aI0
aI0
aI0
aI0
aI0
aI80
aF0.25
aI15
aI100
aI0
aI0
aI0
aI0
aI1
aI0
aI0
aI0
aI0
aI5
aI0
aI0
aI1
aI0
aI1
aI1
aI10
aI2
aI-1
aI0
aF0.80000000000000004
aI1
aI0
aI2
aI1
aI0
aI0
aI0
aI0
aI0
aI0
aI0
aI0
aI0
aVdagger_adder
p161
aI8
aI0
aF0.75
aF1.8300000000000001
aI0
asI2282
(lp162
I13706
aI2
aNaNaI1
aI0
aI0
aI0
aI0
aI0
aI0
aI0
aI80
aF0.25
aI30
aI100
aI0
aI0
aI0
aI0
aI1
aI0
aI0
aI0
aI0
aI14
aI0
aI0
aI1
aI0
aI1
aI1
aI4
aI0
aI-1
aI0
aF0.80000000000000004
aI1
aI0
aI2
aI1
aI0
aI0
aI0
aI0
aI0
aI0
aI0
aI0
aI0
aVdagger_sidewinder
p163
aI10
aI0
aF0.75
aI1
aI0
asI2283
(lp164
I13706
aI2
aNaNaI1
aI0
aI0
aI0
aI0
aI0
aI0
aI0
aI80
aF0.25
aI30
aI100
aI0
aI0
aI0
aI0
aI1
aI0
aI0
aI1
aI1
aI26
aI0
aI0
aI1
aI0
aI1
aI1
aI3
aI0
aI-1
aI0
aF0.80000000000000004
aI1
aI0
aI2
aI1
aI0
aI0
aI0
aI0
aI0
aI0
aI0
aI0
aI0
aVdagger_throw
p165
aI16
aI0
aI1
aI1
aI0
asI2284
(lp166
I13706
aI1
aNaNaI0
aI0
aI0
aI0
aI-150
aI0
aI0
aI0
aI100
aF0.25
aI15
aI12
aI0
aI0
aI0
aI0
aI1
aI0
aI0
aI0
aI0
aI0
aI0
aI0
aI1
aI0
aI0
aI0
aI0
aI0
aI-1
aI0
aI0
aI1
aI0
aI1
aI0
aI0
aI0
aI0
aI0
aI0
aI0
aI0
aI0
aI0
aVdagger_swipe
p167
aI6
aI1
aI1
aI1
aI0
asI2285
(lp168
I13706
aI1
aNaNaI4
aI0
aI0
aI0
aI-100
aI0
aI0
aI0
aI100
aF0.25
aI30
aI6
aI0
aI0
aI0
aI0
aI1
aI0
aI0
aI0
aI0
aI26
aI0
aI0
aI1
aI0
aI1
aI1
aI6
aI0
aI-1
aI0
aF0.80000000000000004
aI3
aI0
aI5
aI1
aI0
aI0
aI0
aI0
aI0
aI0
aI0
aI0
aI0
aVcutlass_flourish
p169
aI14
aI0
aI1
aI1
aI0
asI2286
(lp170
I13706
aI2
aNaNaI2
aI0
aI0
aI0
aI-80
aI0
aI0
aI0
aI80
aF0.25
aI20
aI50
aI0
aI0
aI0
aI0
aI1
aI0
aI0
aI1
aI1
aI7
aI0
aI0
aI1
aI0
aI1
aI1
aI8
aI0
aI-1
aI0
aF0.80000000000000004
aI3
aI0
aI5
aI1
aI0
aI0
aI0
aI0
aI0
aI0
aI0
aI1
aI1
aVdagger_blade_instinct
p171
aI16
aI0
aI1
aF1.8300000000000001
aI0
asI2287
(lp172
I13706
aI2
aNaNaI4
aI0
aI0
aI0
aI-70
aI0
aI0
aI0
aI80
aF0.25
aI20
aI30
aI30
aI0
aI0
aI0
aI1
aI0
aI1
aI0
aI0
aI26
aI0
aI0
aI0
aI0
aI1
aI1
aI3
aI0
aI-1
aI0
aF0.80000000000000004
aI1
aI0
aI1
aI1
aI0
aI0
aI0
aI0
aI0
aI0
aI0
aI0
aI0
aVcutlass_sweep
p173
aI13
aI0
aI1
aI1
aI1
asI2288
(lp174
I13706
aI1
aNaNaI4
aI0
aI0
aI-50
aI-60
aI0
aI0
aI0
aI100
aF0.25
aI15
aI10
aI0
aI0
aI0
aI0
aI1
aI0
aI1
aI0
aI0
aI5
aI0
aI0
aI1
aI0
aI1
aI1
aI15
aI2
aI-1
aI0
aF0.80000000000000004
aI1
aI0
aI1
aI1
aI0
aI0
aI0
aI0
aI0
aI0
aI0
aI0
aI0
aVdagger_gouge
p175
aI8
aI0
aI1
aI1
aI0
asI2289
(lp176
I13706
aI2
aNaNaI8
aI0
aI0
aI-35
aI-40
aI0
aI0
aI0
aI80
aF0.25
aI20
aI50
aI0
aI0
aI0
aI0
aI1
aI0
aI0
aI0
aI0
aI21
aI0
aI0
aI1
aI0
aI1
aI1
aI10
aI2
aI-1
aI0
aF0.80000000000000004
aI1
aI0
aI5
aI1
aI0
aI0
aI0
aI0
aI0
aI0
aI0
aI0
aI0
aVdagger_impale
p177
aI8
aI0
aI1
aI1
aI0
asI2290
(lp178
I13703
aI1
aNaNaI1
aI0
aI0
aI0
aI0
aI0
aI0
aI0
aI100
aF0.25
aI5
aI6
aI0
aI0
aI0
aI0
aI1
aI0
aI0
aI0
aI0
aI0
aI0
aI0
aI0
aI0
aI0
aI0
aI0
aI0
aI-1
aI0
aF0.45000000000000001
aI6
aI0
aI1
aI1
aI0
aI0
aI0
aI0
aI0
aI0
aI0
aI0
aI0
aVcutlass_finesse
p179
aI1
aI1
aI1
aI1
aI0
asI2291
(lp180
I13703
aI1
aNaNaI1
aI0
aI0
aI0
aI0
aI0
aI0
aI0
aI90
aF0.25
aI15
aI6
aI15
aI0
aI0
aI0
aI1
aI1
aI1
aI0
aI0
aI0
aI0
aI0
aI0
aI0
aI0
aI0
aI0
aI0
aI-1
aI0
aF0.28999999999999998
aI4
aI0
aI1
aI1
aI0
aI0
aI0
aI0
aI0
aI0
aI0
aI0
aI0
aVcutlass_finesse
p181
aI29
aI1
aI2
aI1
aI0
asI2292
(lp182
I13703
aI1
aNaNaI1
aI0
aI0
aI0
aI0
aI0
aI0
aI0
aI100
aF0.25
aI12
aI6
aI0
aI0
aI0
aI0
aI1
aI0
aI0
aI0
aI0
aI0
aI0
aI0
aI0
aI0
aI0
aI0
aI0
aI0
aI-1
aI0
aF0.62
aI5
aI0
aI1
aI1
aI0
aI0
aI0
aI0
aI0
aI0
aI0
aI0
aI0
aVcutlass_finesse
p183
aI1
aI1
aF1.25
aI1
aI0
asI2293
(lp184
I13703
aI1
aNaNaI1
aI0
aI0
aI0
aI0
aI0
aI0
aI0
aI90
aF0.25
aI2
aI6
aI0
aI0
aI0
aI0
aI1
aI0
aI0
aI0
aI0
aI4
aI0
aI0
aI0
aI0
aI0
aI1
aI10
aI2
aI-1
aI0
aF0.5
aI2
aI0
aI1
aI1
aI0
aI0
aI0
aI0
aI0
aI0
aI0
aI0
aI0
aVcutlass_finesse
p185
aI1
aI1
aI1
aI1
aI0
asI2294
(lp186
I13703
aI1
aNaNaI1
aI0
aI0
aI0
aI0
aI0
aI0
aI0
aI100
aF0.25
aI5
aI6
aI0
aI0
aI0
aI0
aI1
aI0
aI0
aI0
aI0
aI0
aI0
aI0
aI0
aI0
aI0
aI0
aI0
aI0
aI-1
aI0
aF0.40000000000000002
aI2
aI0
aI1
aI1
aI0
aI0
aI0
aI0
aI0
aI0
aI0
aI0
aI0
aVcutlass_finesse
p187
aI1
aI1
aI1
aI1
aI0
asI2300
(lp188
I13709
aI3
aNaNaI6
aI0
aI0
aI-60
aI300
aI0
aI0
aI0
aI100
aF0.25
aI45
aI130
aI0
aI0
aI0
aI1
aI1
aI0
aI0
aI0
aI0
aI166
aI0
aI0
aI1
aI1
aI0
aI0
aI0
aI0
aI-1
aI0
aF0.10000000000000001
aI1
aI2
aI2
aI1
aI0
aI0
aI0
aI0
aI0
aI0
aI0
aI0
aI1
aVvoodoo_will_power
p189
aI22
aI5
aI1
aF2.625
aI0
asI2301
(lp190
I13709
aI3
aNaNaI6
aI0
aI0
aI-50
aI0
aI0
aI0
aI0
aI100
aF0.25
aI60
aI130
aI0
aI0
aI0
aI1
aI1
aI0
aI0
aI0
aI0
aI35
aI0
aI0
aI1
aI1
aI0
aI0
aI15
aI0
aI-1
aI0
aF0.10000000000000001
aI1
aI2
aI2
aI1
aI0
aI0
aI0
aI0
aI0
aI0
aI0
aI0
aI1
aVvoodoo_hasten
p191
aI47
aI5
aI1
aF2.625
aI0
asI2302
(lp192
I13709
aI3
aNaNaI6
aI0
aI0
aI-50
aI0
aI0
aI0
aI0
aI100
aF0.25
aI45
aI130
aI0
aI0
aI0
aI1
aI1
aI0
aI0
aI0
aI0
aI34
aI0
aI0
aI1
aI1
aI0
aI0
aI10
aI0
aI-1
aI0
aF0.10000000000000001
aI1
aI2
aI2
aI1
aI0
aI0
aI0
aI0
aI0
aI0
aI0
aI0
aI1
aVcutlass_bladestorm
p193
aI49
aI5
aI1
aF2.625
aI0
asI2303
(lp194
I13709
aI3
aNaNaI6
aI0
aI0
aI-50
aI0
aI0
aI0
aI0
aI100
aF0.25
aI60
aI130
aI0
aI0
aI0
aI1
aI1
aI0
aI0
aI0
aI0
aI37
aI0
aI0
aI1
aI1
aI0
aI0
aI15
aI0
aI-1
aI0
aF0.10000000000000001
aI1
aI2
aI2
aI1
aI0
aI0
aI0
aI0
aI0
aI0
aI0
aI0
aI1
aVgrenade_determination
p195
aI46
aI5
aI1
aF2.625
aI0
asI2304
(lp196
I13709
aI3
aNaNaI6
aI0
aI0
aI-50
aI0
aI0
aI0
aI0
aI100
aF0.25
aI60
aI130
aI0
aI0
aI0
aI1
aI1
aI0
aI0
aI0
aI0
aI36
aI0
aI0
aI1
aI1
aI0
aI0
aI15
aI0
aI-1
aI0
aF0.10000000000000001
aI1
aI2
aI2
aI1
aI0
aI0
aI0
aI0
aI0
aI0
aI0
aI0
aI1
aVstaff_spirit_lore
p197
aI48
aI5
aI1
aF2.625
aI0
asI2305
(lp198
I13709
aI3
aNaNaI6
aI0
aI0
aI-40
aI0
aI0
aI0
aI0
aI100
aF0.25
aI45
aI130
aI0
aI0
aI0
aI1
aI1
aI0
aI0
aI0
aI0
aI20
aI0
aI0
aI1
aI1
aI0
aI0
aI20
aI2
aI-1
aI0
aF0.10000000000000001
aI1
aI2
aI2
aI1
aI0
aI0
aI0
aI0
aI0
aI0
aI0
aI0
aI1
aVstaff_harmony
p199
aI25
aI5
aI1
aF2.625
aI0
asI2306
(lp200
I13709
aI3
aNaNaI0
aI0
aI0
aI-35
aI0
aI0
aI0
aI0
aI100
aI1
aI10
aI30
aI30
aI0
aI0
aI1
aI1
aI0
aI2
aI0
aI0
aI18
aI0
aI0
aI0
aI0
aI0
aI0
aI-1
aI0
aI-1
aI0
aF0.10000000000000001
aI1
aI0
aI2
aI1
aI0
aI0
aI0
aI0
aI0
aI0
aI0
aI1
aI1
aVgrenade_determination2
p201
aI19
aI2
aI1
aF0.78000000000000003
aI0
asI2310
(lp202
I13704
aI1
aNaNaI1
aI0
aI0
aI0
aI-40
aI0
aI0
aI0
aI90
aI0
aF0.5
aI10
aI0
aI0
aI0
aI0
aI1
aI0
aI0
aI0
aI0
aI26
aI0
aI0
aI1
aI0
aI0
aI1
aI3
aI0
aI-1
aI0
aF0.10000000000000001
aI1
aI2
aI1
aI1
aI0
aI0
aI0
aI0
aI0
aI0
aI0
aI0
aI0
aVcutlass_cleave
p203
aI2
aI1
aI1
aI1
aI0
asI2311
(lp204
I13704
aI1
aNaNaI2
aI0
aI0
aI0
aI-15
aI0
aI0
aI0
aI90
aI0
aI15
aI6
aI0
aI0
aI0
aI0
aI1
aI0
aI0
aI0
aI0
aI26
aI0
aI0
aI1
aI0
aI0
aI1
aI6
aI0
aI-1
aI0
aF0.10000000000000001
aI1
aI2
aI2
aI1
aI0
aI0
aI0
aI0
aI0
aI0
aI0
aI0
aI0
aVcutlass_brawl
p205
aI6
aI1
aF0.75
aI0
aI0
asI2312
(lp206
I13704
aI1
aNaNaI2
aI0
aI0
aI0
aI-60
aI0
aI0
aI0
aI70
aI0
aI10
aI10
aI0
aI0
aI0
aI0
aI1
aI0
aI0
aI0
aI0
aI26
aI0
aI0
aI1
aI0
aI0
aI1
aI3
aI0
aI-1
aI0
aF0.10000000000000001
aI4
aI2
aI2
aI1
aI0
aI0
aI0
aI0
aI0
aI0
aI0
aI0
aI0
aVdagger_vipers_nest
p207
aI2
aI1
aF1.5
aI0
aI0
asI2313
(lp208
I13704
aI2
aNaNaI1
aI0
aI0
aI0
aI-35
aI0
aI0
aI0
aI80
aI0
aI3
aI150
aI0
aI0
aI0
aI0
aI1
aI0
aI0
aI0
aI0
aI0
aI0
aI0
aI1
aI0
aI1
aI0
aI0
aI0
aI-1
aI0
aF0.10000000000000001
aI1
aI2
aI1
aI1
aI0
aI0
aI0
aI0
aI0
aI0
aI0
aI0
aI0
aVpistol_shoot
p209
aI0
aI0
aF0.59999999999999998
aI1
aI0
asI2314
(lp210
I13704
aI1
aNaNaI2
aI0
aI0
aI0
aI-15
aI0
aI0
aI0
aI90
aI0
aI6
aI6
aI0
aI0
aI0
aI0
aI1
aI0
aI0
aI0
aI0
aI7
aI0
aI0
aI1
aI0
aI0
aI1
aI8
aI0
aI-1
aI0
aF0.10000000000000001
aI1
aI2
aI5
aI1
aI0
aI0
aI0
aI0
aI0
aI0
aI0
aI0
aI0
aVcutlass_brawl
p211
aI6
aI1
aF0.75
aI0
aI0
asI2315
(lp212
I13704
aI1
aNaNaI2
aI0
aI0
aI0
aI-60
aI0
aI0
aI0
aI70
aI0
aI6
aI10
aI0
aI0
aI0
aI0
aI1
aI0
aI0
aI0
aI0
aI26
aI0
aI0
aI1
aI0
aI0
aI1
aI3
aI0
aI-1
aI0
aF0.10000000000000001
aI4
aI2
aI5
aI1
aI0
aI0
aI0
aI0
aI0
aI0
aI0
aI0
aI0
aVdagger_vipers_nest
p213
aI2
aI1
aF1.5
aI0
aI0
asI2316
(lp214
I13704
aI1
aNaNaI2
aI0
aI0
aI0
aI-25
aI0
aI0
aI0
aI90
aI0
aI6
aI6
aI0
aI0
aI0
aI0
aI1
aI0
aI0
aI1
aI1
aI156
aI0
aI0
aI1
aI0
aI0
aI1
aI6
aI0
aI-1
aI0
aF0.10000000000000001
aI1
aI2
aI5
aI1
aI0
aI0
aI0
aI0
aI0
aI0
aI0
aI0
aI0
aVgrenade_toughness
p215
aI42
aI1
aF0.75
aI0
aI0
asI2317
(lp216
I13704
aI1
aNaNaI1
aI0
aI0
aI0
aI-40
aI0
aI0
aI0
aI90
aI0
aF0.5
aI10
aI0
aI0
aI0
aI0
aI1
aI0
aI0
aI0
aI0
aI26
aI0
aI0
aI1
aI0
aI0
aI1
aI3
aI0
aI-1
aI0
aF0.33000000000000002
aI1
aI2
aI1
aI1
aI0
aI0
aI0
aI0
aI0
aI0
aI0
aI0
aI0
aVcutlass_cleave
p217
aI2
aI1
aF0.5
aI1
aI0
asI2320
(lp218
I13703
aI1
aNaNaI1
aI0
aI0
aI0
aI-60
aI0
aI0
aI0
aI80
aF0.25
aI4
aI6
aI0
aI0
aI0
aI0
aI1
aI0
aI0
aI0
aI0
aI26
aI0
aI0
aI1
aI0
aI0
aI1
aI6
aI0
aI-1
aI0
aF0.22
aI1
aI2
aI1
aI1
aI0
aI0
aI0
aI0
aI0
aI0
aI0
aI0
aI0
aVcutlass_cleave
p219
aI1
aI1
aI1
aI1
aI0
asI31000
(lp220
I13716
aI1
aNaNaI3
aI0
aI0
aI0
aI-1
aI0
aI0
aI0
aI100
aF0.25
aI15
aI6
aI0
aI0
aI0
aI0
aI1
aI0
aI0
aI0
aI0
aI26
aI0
aI0
aI1
aI0
aI0
aI1
aI3
aI0
aI-1
aI0
aF0.22
aI1
aI0
aI1
aI1
aI0
aI0
aI0
aI0
aI0
aI0
aI0
aI1
aI1
aVpir_t_gui_fsh_stall
p221
aI1
aI1
aF0.75
aF0.625
aI0
asI31001
(lp222
I13716
aI1
aNaNaI4
aI0
aI0
aI0
aI-1
aI0
aI0
aI0
aI100
aF0.25
aI15
aI6
aI0
aI0
aI0
aI0
aI1
aI0
aI0
aI0
aI0
aI26
aI0
aI0
aI1
aI0
aI0
aI1
aI3
aI0
aI-1
aI0
aF0.46000000000000002
aI1
aI0
aI1
aI1
aI0
aI0
aI0
aI0
aI0
aI0
aI0
aI1
aI1
aVpir_t_gui_fsh_pull
p223
aI2
aI1
aI1
aF0.75
aI0
asI2330
(lp224
I13703
aI1
aNaNaI2
aI0
aI0
aI0
aI-60
aI0
aI0
aI0
aI95
aF0.25
aI3
aI6
aI0
aI0
aI0
aI0
aI1
aI0
aI0
aI0
aI0
aI10
aI0
aI0
aI1
aI0
aI0
aI1
aI0
aI0
aI-1
aI0
aF0.22
aI1
aI0
aI2
aI1
aI0
aI0
aI0
aI0
aI0
aI0
aI0
aI0
aI0
aVcutlass_cleave
p225
aI6
aI1
aF1.5
aI1
aI0
asI2331
(lp226
I13703
aI1
aNaNaI2
aI0
aI0
aI0
aI-80
aI0
aI0
aI0
aI80
aF0.25
aI30
aI12
aI0
aI0
aI0
aI0
aI1
aI0
aI3
aI0
aI0
aI4
aI0
aI0
aI1
aI0
aI0
aI1
aI10
aI2
aI-1
aI0
aF0.22
aI1
aI0
aI5
aI0
aI0
aI0
aI0
aI0
aI0
aI0
aI0
aI0
aI0
aVcutlass_finesse
p227
aI10
aI1
aF1.5
aI1
aI0
asI2332
(lp228
I13703
aI1
aNaNaI2
aI0
aI0
aI0
aI-60
aI0
aI0
aI0
aI90
aF0.25
aI3
aI6
aI0
aI0
aI0
aI0
aI1
aI0
aI0
aI0
aI0
aI33
aI0
aI0
aI1
aI0
aI0
aI0
aI0
aI0
aI-1
aI0
aF0.22
aI1
aI0
aI2
aI1
aI0
aI0
aI0
aI0
aI0
aI0
aI0
aI0
aI0
aVcutlass_cleave
p229
aI1
aI1
aF1.5
aI1
aI0
asI2333
(lp230
I13703
aI1
aNaNaI1
aI0
aI0
aI-40
aI-50
aI0
aI0
aI0
aI100
aF0.25
aI15
aI6
aI0
aI0
aI0
aI0
aI1
aI0
aI0
aI0
aI0
aI163
aI0
aI0
aI1
aI0
aI0
aI1
aI5
aI2
aI-1
aI0
aF0.22
aI1
aI0
aI1
aI0
aI0
aI0
aI0
aI0
aI0
aI0
aI0
aI1
aI1
aVcannon_flaming_skull
p231
aI9
aI1
aF0.75
aF0.625
aI0
asI2334
(lp232
I13703
aI1
aNaNaI1
aI0
aI0
aI-60
aI-50
aI0
aI0
aI0
aI100
aF0.25
aI30
aI6
aI0
aI0
aI0
aI0
aI1
aI0
aI0
aI0
aI0
aI164
aI0
aI0
aI1
aI0
aI0
aI1
aI3
aI0
aI-1
aI0
aF0.22
aI1
aI0
aI1
aI0
aI0
aI0
aI0
aI0
aI0
aI0
aI0
aI1
aI1
aVpir_t_gui_amo_can_iceshot
p233
aI31
aI1
aF0.75
aF0.625
aI0
asI2335
(lp234
I13703
aI1
aNaNaI1
aI0
aI0
aI-80
aI-100
aI0
aI0
aI0
aI100
aF0.25
aI15
aI6
aI0
aI0
aI0
aI0
aI1
aI0
aI0
aI0
aI0
aI26
aI0
aI0
aI1
aI0
aI0
aI1
aI3
aI0
aI-1
aI0
aF0.22
aI1
aI0
aI1
aI0
aI0
aI0
aI0
aI0
aI0
aI0
aI0
aI1
aI1
aVcannon_thunderbolt
p235
aI44
aI1
aF0.75
aF0.625
aI0
asI2336
(lp236
I13703
aI1
aNaNaI2
aI0
aI0
aI0
aI-80
aI0
aI0
aI0
aI100
aF0.25
aI30
aI6
aI15
aI0
aI0
aI0
aI1
aI0
aI1
aI1
aI1
aI156
aI0
aI0
aI1
aI0
aI0
aI0
aI6
aI0
aI-1
aI0
aF0.59999999999999998
aI1
aI0
aI5
aI0
aI0
aI0
aI0
aI0
aI0
aI0
aI0
aI1
aI1
aVcannon_shrapnel
p237
aI42
aI1
aF1.25
aF1.4199999999999999
aI0
asI2337
(lp238
I13703
aI1
aNaNaI2
aI0
aI0
aI0
aI-100
aI0
aI0
aI0
aI100
aF0.25
aI30
aI6
aI15
aI0
aI0
aI0
aI1
aI0
aI1
aI0
aI0
aI0
aI0
aI0
aI1
aI0
aI0
aI0
aI0
aI0
aI-1
aI0
aF0.59999999999999998
aI4
aI0
aI5
aI0
aI0
aI0
aI0
aI0
aI0
aI0
aI0
aI1
aI1
aVgrenade_determination
p239
aI29
aI1
aF1.25
aF1.4199999999999999
aI0
asI2340
(lp240
I13704
aI2
aNaI12200
aI1
aI0
aI0
aI0
aI-30
aI0
aI0
aI0
aI70
aF0.25
aF0.5
aI70
aI70
aI0
aI0
aI0
aI1
aI0
aI2
aI0
aI0
aI0
aI0
aI0
aI1
aI0
aI0
aI0
aI0
aI0
aI-1
aI0
aF0.10000000000000001
aI1
aI2
aI1
aI1
aI0
aI0
aI0
aI0
aI0
aI0
aI0
aI1
aI1
aVsail_task_master
p241
aI0
aI0
aI1
aF0.55000000000000004
aI0
asI2341
(lp242
I13704
aI2
aNaI12200
aI2
aI0
aI0
aI0
aI-50
aI0
aI0
aI0
aI100
aF0.25
aI15
aI100
aI0
aI0
aI0
aI0
aI1
aI0
aI0
aI0
aI0
aI7
aI0
aI0
aI1
aI0
aI1
aI1
aI5
aI0
aI-1
aI0
aF0.10000000000000001
aI1
aI2
aI1
aI1
aI0
aI0
aI0
aI0
aI0
aI0
aI0
aI1
aI1
aVpistol_eagle_eye
p243
aI6
aI0
aI1
aF0.55000000000000004
aI0
asI2342
(lp244
I13704
aI2
aNaNaI2
aI0
aI0
aI0
aI-25
aI0
aI0
aI0
aI90
aF0.25
aI15
aI70
aI0
aI0
aI0
aI0
aI1
aI0
aI0
aI0
aI0
aI0
aI0
aI0
aI1
aI0
aI1
aI0
aI0
aI0
aI-1
aI0
aF0.10000000000000001
aI3
aI2
aI1
aI1
aI0
aI0
aI0
aI0
aI0
aI0
aI0
aI1
aI1
aVcannon_barrage
p245
aI0
aI0
aI1
aF0.55000000000000004
aI0
asI2343
(lp246
I13704
aI0
aNaNaI0
aI0
aI0
aI0
aI0
aI0
aI0
aI0
aI100
aI0
aI60
aI0
aI0
aI0
aI1
aI0
aI1
aI0
aI0
aI0
aI0
aI157
aI0
aI0
aI0
aI0
aI0
aI0
aI10
aI0
aI-1
aI0
aF0.10000000000000001
aI1
aI0
aI1
aI1
aI0
aI0
aI0
aI0
aI0
aI0
aI0
aI1
aI1
aVsail_open_fire
p247
aI45
aI0
aI1
aF1.1599999999999999
aI0
asI2344
(lp248
I13704
aI2
aNaNaI1
aI0
aI0
aI0
aI-30
aI0
aI0
aI0
aI70
aF0.25
aI10
aI40
aI70
aI0
aI0
aI0
aI1
aI0
aI2
aI1
aI0
aI6
aI0
aI0
aI1
aI0
aI0
aI1
aI5
aI0
aI-1
aI0
aF0.10000000000000001
aI2
aI2
aI5
aI1
aI0
aI0
aI0
aI0
aI0
aI0
aI0
aI1
aI1
aVpir_t_gui_amo_can_scatter
p249
aI42
aI0
aI1
aF0.55000000000000004
aI0
asI2345
(lp250
I13704
aI2
aNaNaI1
aI0
aI0
aI0
aI-30
aI0
aI0
aI0
aI70
aF0.25
aI10
aI40
aI70
aI0
aI0
aI0
aI1
aI0
aI2
aI0
aI0
aI4
aI0
aI0
aI1
aI0
aI0
aI1
aI3
aI0
aI-1
aI0
aF0.10000000000000001
aI3
aI2
aI5
aI1
aI0
aI0
aI0
aI0
aI0
aI0
aI0
aI1
aI1
aVcannon_grape_shot
p251
aI10
aI0
aI1
aF0.55000000000000004
aI0
asI2346
(lp252
I13704
aI2
aNaNaI2
aI0
aI0
aI0
aI-200
aI0
aI0
aI0
aI80
aF0.25
aI10
aI20
aI0
aI0
aI0
aI0
aI1
aI0
aI0
aI0
aI0
aI0
aI0
aI0
aI1
aI0
aI1
aI0
aI0
aI0
aI-1
aI0
aF0.10000000000000001
aI1
aI0
aI5
aI1
aI0
aI0
aI0
aI0
aI0
aI0
aI0
aI1
aI1
aVpistol_shoot
p253
aI6
aI0
aI1
aF0.55000000000000004
aI0
asI2347
(lp254
I13704
aI2
aNaNaI2
aI0
aI0
aI0
aI-50
aI0
aI0
aI0
aI100
aF0.25
aI15
aI100
aI0
aI0
aI0
aI0
aI1
aI0
aI0
aI0
aI0
aI3
aI0
aI0
aI1
aI0
aI1
aI1
aI10
aI0
aI-1
aI0
aF0.10000000000000001
aI1
aI2
aI1
aI1
aI0
aI0
aI0
aI0
aI0
aI0
aI0
aI1
aI1
aVpir_t_gui_amo_can_firestorm
p255
aI9
aI0
aI1
aF0.55000000000000004
aI0
asI2348
(lp256
I13704
aI2
aNaI12210
aI5
aI0
aI0
aI0
aI-30
aI0
aI0
aI0
aI70
aF0.25
aI1
aI70
aI70
aI0
aI0
aI0
aI1
aI0
aI2
aI0
aI0
aI7
aI0
aI0
aI1
aI0
aI1
aI1
aI3
aI0
aI-1
aI2
aF0.10000000000000001
aI1
aI2
aI1
aI1
aI0
aI0
aI0
aI0
aI0
aI0
aI0
aI1
aI1
aVpistol_take_aim
p257
aI0
aI0
aI1
aF0.55000000000000004
aI0
asI2350
(lp258
I13703
aI1
aNaI12100
aI1
aI0
aI0
aI0
aI-12
aI0
aI0
aI0
aI100
aF0.25
aF0.5
aI6
aI0
aI0
aI0
aI0
aI1
aI0
aI0
aI0
aI0
aI26
aI0
aI0
aI1
aI0
aI0
aI1
aI3
aI0
aI-1
aI0
aF0.22
aI1
aI0
aI1
aI1
aI0
aI0
aI0
aI0
aI0
aI0
aI0
aI1
aI1
aVcutlass_hack
p259
aI50
aI1
aF0.5
aF0.375
aI0
asI2351
(lp260
I13703
aI1
aNaI12101
aI2
aI0
aI0
aI0
aI-33
aI0
aI0
aI0
aI100
aF0.25
aF0.5
aI6
aI10
aI0
aI0
aI0
aI1
aI0
aI1
aI0
aI0
aI26
aI0
aI0
aI1
aI0
aI0
aI1
aI3
aI0
aI-1
aI0
aF0.46000000000000002
aI1
aI0
aI1
aI1
aI0
aI0
aI0
aI0
aI0
aI0
aI0
aI1
aI1
aVcutlass_slash
p261
aI51
aI1
aF1.0249999999999999
aF0.77500000000000002
aI0
asI2352
(lp262
I13703
aI1
aNaI12102
aI2
aI0
aI0
aI0
aI-45
aI0
aI0
aI0
aI100
aF0.25
aF0.5
aI6
aI15
aI0
aI0
aI0
aI1
aI0
aI1
aI0
aI0
aI26
aI0
aI0
aI1
aI0
aI0
aI1
aI3
aI0
aI-1
aI0
aF0.69999999999999996
aI1
aI0
aI1
aI1
aI0
aI0
aI0
aI0
aI0
aI0
aI0
aI1
aI1
aVcutlass_cleave
p263
aI52
aI1
aF0.875
aF0.75
aI0
asI2353
(lp264
I13703
aI1
aNaI12103
aI4
aI0
aI0
aI0
aI-80
aI0
aI0
aI0
aI100
aF0.25
aF0.5
aI6
aI15
aI0
aI0
aI0
aI1
aI0
aI1
aI0
aI0
aI26
aI0
aI0
aI1
aI0
aI0
aI1
aI3
aI0
aI-1
aI0
aF0.59999999999999998
aI1
aI0
aI1
aI1
aI0
aI0
aI0
aI0
aI0
aI0
aI0
aI0
aI0
aVcutlass_flourish
p265
aI53
aI1
aF0.59999999999999998
aF0.59999999999999998
aI0
asI2354
(lp266
I13703
aI1
aNaI12104
aI6
aI0
aI0
aI0
aI-110
aI0
aI0
aI0
aI100
aF0.25
aF0.5
aI6
aI0
aI0
aI0
aI0
aI1
aI0
aI0
aI0
aI0
aI26
aI0
aI0
aI1
aI0
aI0
aI1
aI3
aI0
aI-1
aI0
aF0.59999999999999998
aI1
aI0
aI1
aI1
aI0
aI0
aI0
aI0
aI0
aI0
aI0
aI0
aI0
aVcutlass_stab
p267
aI54
aI1
aF1.3999999999999999
aF0.94999999999999996
aI0
asI12600
(lp268
I13709
aI3
aNaNaI0
aI0
aI0
aI0
aI0
aI0
aI0
aI0
aI100
aI1
aF0.5
aI6
aI0
aI0
aI0
aI1
aI1
aI0
aI0
aI0
aI0
aI18
aI0
aI0
aI1
aI0
aI0
aI0
aI-1
aI0
aI-1
aI0
aF0.10000000000000001
aI1
aI0
aI1
aI1
aI0
aI0
aI0
aI0
aI0
aI0
aI0
aI1
aI1
aVvoodoo_attune
p269
aI19
aI2
aI1
aF0.78000000000000003
aI0
asI12601
(lp270
I13709
aI3
aNaNaI4
aI0
aI0
aI-5
aI-65
aI0
aI0
aI0
aI100
aF0.25
aI4
aI130
aI0
aI0
aI0
aI0
aI1
aI0
aI0
aI0
aI0
aI0
aI0
aI0
aI1
aI0
aI0
aI0
aI0
aI0
aI-1
aI0
aF0.59999999999999998
aI1
aI0
aI2
aI1
aI0
aI0
aI0
aI0
aI0
aI0
aI0
aI1
aI1
aVvoodoo_poke
p271
aI20
aI2
aF0.5
aF2.0800000000000001
aI0
asI12602
(lp272
I13709
aI3
aNaNaI5
aI0
aI0
aI-20
aI-100
aI0
aI0
aI0
aI100
aF0.25
aI10
aI130
aI0
aI0
aI0
aI0
aI1
aI0
aI0
aI0
aI0
aI0
aI0
aI0
aI1
aI0
aI0
aI0
aI0
aI0
aI-1
aI0
aF0.40000000000000002
aI1
aI0
aI2
aI1
aI0
aI0
aI0
aI0
aI0
aI0
aI0
aI1
aI1
aVvoodoo_swarm
p273
aI21
aI2
aI2
aF2.625
aI0
asI12603
(lp274
I13709
aI3
aNaNaI10
aI0
aI0
aI-15
aI180
aI0
aI0
aI0
aI100
aF0.25
aI10
aI130
aI0
aI0
aI0
aI1
aI1
aI0
aI0
aI0
aI0
aI0
aI0
aI0
aI1
aI0
aI0
aI0
aI0
aI0
aI-1
aI0
aF0.29999999999999999
aI1
aI0
aI2
aI1
aI0
aI0
aI0
aI0
aI0
aI0
aI0
aI1
aI1
aVvoodoo_heal
p275
aI22
aI2
aI1
aF2.625
aI0
asI12604
(lp276
I13709
aI3
aNaNaI15
aI0
aI0
aI-30
aI0
aI0
aI0
aI0
aI100
aF0.25
aI30
aI130
aI0
aI0
aI0
aI0
aI1
aI0
aI0
aI0
aI0
aI12
aI0
aI0
aI1
aI0
aI0
aI1
aI60
aI0
aI-1
aI0
aF0.10000000000000001
aI1
aI0
aI2
aI1
aI0
aI0
aI0
aI0
aI0
aI0
aI0
aI0
aI0
aVvoodoo_curse
p277
aI26
aI2
aI1
aF2.625
aI0
asI12605
(lp278
I13709
aI3
aNaNaF7.5
aI0
aI0
aI-35
aI-25
aI0
aI0
aI0
aI100
aF0.25
aI25
aI130
aI0
aI0
aI0
aI0
aI1
aI0
aI0
aI0
aI0
aI3
aI0
aI0
aI1
aI0
aI0
aI1
aI15
aI2
aI-1
aI0
aF0.29999999999999999
aI1
aI0
aI2
aI1
aI0
aI0
aI0
aI0
aI0
aI0
aI0
aI0
aI1
aVvoodoo_burn
p279
aI9
aI2
aI1
aF2.625
aI0
asI12606
(lp280
I13709
aI3
aNaNaI20
aI0
aI0
aI-40
aI360
aI0
aI0
aI0
aI100
aF0.25
aI30
aI130
aI0
aI0
aI0
aI1
aI1
aI0
aI0
aI0
aI0
aI15
aI0
aI0
aI1
aI0
aI0
aI0
aI0
aI0
aI-1
aI0
aF0.29999999999999999
aI1
aI0
aI2
aI1
aI0
aI0
aI0
aI0
aI0
aI0
aI0
aI0
aI0
aVvoodoo_cure
p281
aI25
aI2
aI1
aF2.625
aI0
asI12607
(lp282
I13709
aI3
aNaNaI20
aI0
aI0
aI-50
aI0
aI0
aI0
aI0
aI100
aF0.25
aI60
aI130
aI0
aI0
aI0
aI0
aI1
aI0
aI0
aI0
aI0
aI8
aI0
aI0
aI1
aI0
aI0
aI1
aI5
aI0
aI-1
aI0
aF0.10000000000000001
aI1
aI0
aI2
aI1
aI0
aI0
aI0
aI0
aI0
aI0
aI0
aI0
aI0
aVvoodoo_shackle
p283
aI24
aI2
aI1
aF2.625
aI0
asI12608
(lp284
I13709
aI3
aNaNaI20
aI0
aI0
aI-100
aI-200
aI0
aI0
aI0
aI100
aF0.25
aI30
aI130
aI0
aI0
aI0
aI0
aI1
aI0
aI0
aI0
aI0
aI23
aI0
aI0
aI1
aI0
aI0
aI0
aI0
aI0
aI-1
aI0
aF0.10000000000000001
aI1
aI0
aI2
aI1
aI0
aI0
aI0
aI0
aI0
aI0
aI0
aI0
aI0
aVvoodoo_life_drain
p285
aI27
aI2
aI2
aF2.625
aI0
asI12609
(lp286
I13709
aI0
aNaNaI0
aI0
aI0
aI0
aI0
aI0
aI0
aI0
aI0
aF0.040000000000000001
aI0
aI0
aI0
aI0
aI0
aI0
aI1
aI0
aI0
aI0
aI0
aI0
aI0
aI0
aI0
aI1
aI0
aI0
aI0
aI0
aI-1
aI0
aF0.10000000000000001
aI0
aI0
aI3
aI0
aI0
aI0
aI0
aI0
aI0
aI0
aI0
aI0
aI0
aVstaff_focus
p287
aI0
aI0
aI1
aI0
aI0
asI12610
(lp288
I13709
aI0
aNaNaI0
aI0
aI0
aI0
aI0
aI0
aI0
aI0
aI0
aF0.02
aI0
aI0
aI0
aI0
aI0
aI0
aI0
aI0
aI0
aI0
aI0
aI0
aI0
aI0
aI0
aI1
aI0
aI0
aI0
aI0
aI-1
aI0
aI0
aI0
aI0
aI3
aI0
aI0
aI0
aI0
aI0
aI0
aI0
aI0
aI0
aI0
aVvoodoo_will_power
p289
aI0
aI0
aI1
aI0
aI0
asI2371
(lp290
I0
aI0
aNaNaI0
aI0
aI0
aI0
aI0
aI0
aI0
aI0
aI100
aF0.25
aF0.5
aI0
aI0
aI0
aI1
aI0
aI0
aI0
aI0
aI0
aI0
aI0
aI0
aI0
aI0
aI0
aI0
aI0
aI0
aI0
aI-1
aI0
aI0
aI1
aI1
aI1
aI1
aI0
aI0
aI0
aI0
aI0
aI0
aI0
aI0
aI0
aVvoodoo_heal
p291
aI45
aI2
aI1
aF2.625
aI0
asI2372
(lp292
I0
aI0
aNaNaI0
aI0
aI0
aI0
aI0
aI0
aI0
aI0
aI100
aF0.25
aF0.5
aI0
aI0
aI0
aI1
aI0
aI0
aI0
aI0
aI0
aI0
aI0
aI0
aI0
aI0
aI0
aI0
aI0
aI0
aI0
aI-1
aI0
aI0
aI1
aI1
aI1
aI1
aI0
aI0
aI0
aI0
aI0
aI0
aI0
aI0
aI0
aVvoodoo_cure
p293
aI45
aI2
aI1
aF2.625
aI0
asI2373
(lp294
I0
aI0
aNaNaI0
aI0
aI0
aI0
aI0
aI0
aI0
aI0
aI100
aF0.25
aF0.5
aI0
aI0
aI0
aI1
aI0
aI0
aI0
aI0
aI0
aI0
aI0
aI0
aI0
aI0
aI0
aI0
aI0
aI0
aI0
aI-1
aI0
aI0
aI1
aI1
aI1
aI1
aI0
aI0
aI0
aI0
aI0
aI0
aI0
aI0
aI0
aVvoodoo_curse
p295
aI45
aI2
aI1
aF2.625
aI0
asI12650
(lp296
I13712
aI0
aNaNaI0
aI0
aI0
aI0
aI0
aI0
aI0
aI0
aI100
aF0.050000000000000003
aI15
aI-1
aI0
aI0
aI0
aI0
aI0
aI0
aI0
aI0
aI0
aI0
aI0
aI0
aI0
aI0
aI0
aI0
aI0
aI0
aI-1
aI0
aI0
aI1
aI0
aI2
aI1
aI0
aI0
aI0
aI0
aI0
aI0
aI0
aI1
aI1
aVsail_broadside_left
p297
aI0
aI1
aI1
aI0
aI0
asI12651
(lp298
I13712
aI0
aNaNaI0
aI0
aI0
aI0
aI0
aI0
aI0
aI0
aI100
aF0.050000000000000003
aI15
aI-1
aI0
aI0
aI0
aI0
aI0
aI0
aI0
aI0
aI0
aI0
aI0
aI0
aI0
aI0
aI0
aI0
aI0
aI0
aI-1
aI0
aI0
aI1
aI0
aI2
aI1
aI0
aI0
aI0
aI0
aI0
aI0
aI0
aI1
aI1
aVsail_broadside_right
p299
aI0
aI1
aI1
aI0
aI0
asI12652
(lp300
I13712
aI0
aNaNaI2
aI0
aI0
aI0
aI0
aI0
aI0
aI0
aI100
aF0.25
aI90
aI-1
aI0
aI0
aI0
aI0
aI0
aI0
aI0
aI0
aI0
aI100
aI0
aI0
aI0
aI0
aI0
aI0
aI10
aI0
aI-1
aI0
aI0
aI1
aI0
aI2
aI1
aI4
aI4
aI0
aI0
aI0
aI0
aI0
aI1
aI1
aVsail_full_sail
p301
aI0
aI1
aI1
aI0
aI0
asI12653
(lp302
I13712
aI0
aNaNaI2
aI0
aI0
aI0
aI0
aI0
aI0
aI0
aI100
aF0.25
aI90
aI-1
aI0
aI0
aI0
aI0
aI0
aI0
aI0
aI0
aI0
aI101
aI0
aI0
aI0
aI0
aI0
aI0
aI5
aI0
aI-1
aI0
aI0
aI1
aI0
aI2
aI1
aF0.25
aF0.25
aI0
aI0
aI4
aI4
aI0
aI1
aI1
aVsail_come_about
p303
aI0
aI1
aI1
aI0
aI0
asI12654
(lp304
I13712
aI0
aNaNaI4
aI0
aI0
aI0
aI0
aI0
aI0
aI0
aI100
aF0.25
aI60
aI-1
aI150
aI1
aI0
aI1
aI0
aI0
aI1
aI0
aI0
aI102
aI0
aI0
aI0
aI0
aI0
aI0
aI6
aI0
aI-1
aI0
aI0
aI1
aI0
aI2
aI1
aI0
aI0
aI0
aI0
aI0
aI0
aI1
aI0
aI0
aVsail_openfire2
p305
aI0
aI1
aI1
aI0
aI0
asI12655
(lp306
I13712
aI0
aNaNaI20
aI0
aI0
aI0
aI0
aI0
aI0
aI0
aI100
aF0.25
aI90
aI-1
aI0
aI0
aI0
aI0
aI0
aI0
aI0
aI0
aI0
aI103
aI0
aI0
aI0
aI0
aI0
aI0
aI5
aI0
aI-1
aI0
aI0
aI1
aI0
aI2
aI1
aI6
aI6
aI0
aI0
aI0
aI0
aI0
aI0
aI0
aVsail_ramming_speed
p307
aI0
aI1
aI1
aI0
aI0
asI12656
(lp308
I13712
aI0
aNaNaI4
aI0
aI0
aI0
aI0
aI0
aI0
aI0
aI100
aF0.25
aI60
aI-1
aI150
aI1
aI0
aI1
aI0
aI0
aI1
aI0
aI0
aI104
aI0
aI0
aI0
aI0
aI0
aI0
aI10
aI0
aI-1
aI0
aI0
aI1
aI0
aI2
aI1
aI0
aI0
aI0
aI0
aI0
aI0
aI1
aI0
aI0
aVsail_take_cover
p309
aI0
aI1
aI1
aI0
aI0
asI12657
(lp310
I13712
aI0
aNaNaI0
aI0
aI0
aI0
aI0
aI0
aI0
aI0
aI0
aF0.040000000000000001
aI0
aI0
aI0
aI0
aI0
aI0
aI0
aI0
aI0
aI0
aI0
aI0
aI0
aI0
aI0
aI0
aI0
aI0
aI0
aI0
aI-1
aI0
aI0
aI0
aI0
aI3
aI0
aF0.040000000000000001
aF0.040000000000000001
aF0.040000000000000001
aF0.040000000000000001
aI0
aI0
aI0
aI1
aI1
aVsail_wind_catcher
p311
aI0
aI1
aI1
aI0
aI0
asI12658
(lp312
I13712
aI0
aNaNaI0
aI0
aI0
aI0
aI0
aI0
aI0
aI0
aI0
aF0.029999999999999999
aI0
aI0
aI0
aI0
aI0
aI0
aI0
aI0
aI0
aI0
aI0
aI0
aI0
aI0
aI0
aI0
aI0
aI0
aI0
aI0
aI-1
aI0
aI0
aI0
aI0
aI3
aI0
aI0
aI0
aI0
aI0
aF0.040000000000000001
aF0.040000000000000001
aI0
aI0
aI0
aVsail_tacking
p313
aI0
aI1
aI1
aI0
aI0
asI12659
(lp314
I13712
aI0
aNaNaI0
aI0
aI0
aI0
aI0
aI0
aI0
aI0
aI0
aI10
aI0
aI0
aI0
aI0
aI0
aI0
aI0
aI0
aI0
aI0
aI0
aI0
aI0
aI0
aI0
aI0
aI0
aI0
aI0
aI0
aI-1
aI0
aI0
aI0
aI0
aI3
aI0
aI0
aI0
aI0
aI0
aI0
aI0
aI0
aI0
aI0
aVsail_treasure_sense
p315
aI0
aI1
aI1
aI0
aI0
asI12660
(lp316
I13712
aI0
aNaNaI0
aI0
aI0
aI0
aI0
aI0
aI0
aI0
aI0
aF0.029999999999999999
aI0
aI0
aI0
aI0
aI0
aI0
aI0
aI0
aI0
aI0
aI0
aI0
aI0
aI0
aI0
aI0
aI0
aI0
aI0
aI0
aI-1
aI0
aI0
aI0
aI0
aI3
aI0
aI0
aI0
aI0
aI0
aI0
aI0
aI0
aI0
aI0
aVsail_task_master
p317
aI0
aI1
aI1
aI0
aI0
asI12661
(lp318
I13712
aI0
aNaNaI4
aI0
aI0
aI0
aI0
aI0
aI0
aI0
aI100
aF0.25
aI120
aI-1
aI0
aI0
aI0
aI0
aI0
aI0
aI0
aI0
aI0
aI105
aI0
aI0
aI0
aI0
aI0
aI0
aI10
aI0
aI-1
aI0
aI0
aI1
aI0
aI2
aI1
aI1
aI0
aI0
aI0
aI0
aI0
aI0
aI0
aI0
aVsail_recharge
p319
aI0
aI1
aI1
aI0
aI0
asI12700
(lp320
I13708
aI3
aNaNaF0.5
aI0
aI0
aI0
aI-10
aI0
aI0
aI0
aI90
aF0.25
aF0.80000000000000004
aI70
aI3
aI0
aI0
aI0
aI1
aI0
aI1
aI0
aI0
aI0
aI0
aI0
aI1
aI0
aI0
aI0
aI0
aI0
aI-1
aI0
aF0.69999999999999996
aI1
aI0
aI1
aI1
aI0
aI0
aI0
aI0
aI0
aI0
aI0
aI1
aI1
aVstaff_blast
p321
aI31
aI0
aI1
aF1.3300000000000001
aI0
asI12701
(lp322
I13708
aI3
aNaNaF2.5
aI0
aI0
aI-30
aI-50
aI0
aI0
aI0
aI100
aF0.25
aF0.5
aI50
aI0
aI0
aI0
aI0
aI1
aI0
aI3
aI0
aI0
aI7
aI0
aI0
aI0
aI0
aI0
aI1
aI5
aI0
aI-1
aI1
aF0.10000000000000001
aI1
aI1
aI2
aI0
aI0
aI0
aI0
aI0
aI0
aI0
aI0
aI1
aI1
aVstaff_frostbeam
p323
aI36
aI2
aI1
aF1.3300000000000001
aI0
asI12702
(lp324
I13708
aI3
aNaNaI5
aI0
aI0
aI-45
aI-80
aI0
aI0
aI0
aI100
aF0.25
aF2.5
aI50
aI0
aI0
aI0
aI0
aI1
aI0
aI2
aI0
aI0
aI21
aI0
aI0
aI0
aI0
aI0
aI1
aI20
aI2
aI-1
aI3
aF0.10000000000000001
aI1
aI1
aI2
aI0
aI0
aI0
aI0
aI0
aI0
aI0
aI0
aI1
aI1
aVstaff_pestilence
p325
aI33
aI2
aI1
aF1.3300000000000001
aI0
asI12703
(lp326
I13708
aI3
aNaNaI4
aI0
aI0
aI-60
aI-100
aI0
aI0
aI0
aI100
aF0.25
aF1.5
aI20
aI20
aI0
aI0
aI0
aI1
aI0
aI1
aI0
aI0
aI14
aI0
aI0
aI0
aI0
aI0
aI1
aI15
aI0
aI-1
aI2
aF0.10000000000000001
aI1
aI1
aI2
aI0
aI0
aI0
aI0
aI0
aI0
aI0
aI0
aI1
aI1
aVstaff_sparks
p327
aI32
aI2
aI1
aF1.3300000000000001
aI0
asI12704
(lp328
I13708
aI3
aNaNaF8.5
aI0
aI0
aI-120
aI-200
aI0
aI0
aI0
aI100
aF0.25
aF3.5
aI120
aI0
aI0
aI0
aI0
aI1
aI0
aI3
aI0
aI0
aI3
aI0
aI0
aI0
aI0
aI0
aI1
aI6
aI2
aI-1
aI4
aF0.10000000000000001
aI1
aI1
aI2
aI0
aI0
aI0
aI0
aI0
aI0
aI0
aI0
aI0
aI0
aVstaff_fire
p329
aI37
aI2
aI1
aF1.3300000000000001
aI0
asI12705
(lp330
I13708
aI3
aNaNaI18
aI0
aI0
aI-210
aI-300
aI0
aI0
aI0
aI100
aF0.25
aF7.5
aI50
aI0
aI0
aI0
aI0
aI1
aI0
aI0
aI0
aI0
aI16
aI0
aI0
aI1
aI0
aI1
aI1
aI0
aI0
aI-1
aI8
aF0.10000000000000001
aI1
aI1
aI2
aI0
aI0
aI0
aI0
aI0
aI0
aI0
aI0
aI0
aI0
aVstaff_deluge
p331
aI34
aI2
aI1
aF1.3300000000000001
aI0
asI12706
(lp332
I13708
aI3
aNaNaI15
aI0
aI0
aI-300
aI-350
aI0
aI0
aI0
aI100
aF0.25
aF11.5
aI20
aI40
aI0
aI0
aI0
aI1
aI0
aI1
aI0
aI0
aI22
aI0
aI0
aI0
aI0
aI0
aI1
aI0
aI0
aI-1
aI12
aF0.10000000000000001
aI1
aI1
aI2
aI0
aI0
aI0
aI0
aI0
aI0
aI0
aI0
aI0
aI0
aVstaff_shockwave
p333
aI35
aI2
aI1
aF1.3300000000000001
aI0
asI12707
(lp334
I13708
aI0
aNaNaI0
aI0
aI0
aI0
aI0
aI0
aI0
aI0
aI0
aF0.10000000000000001
aI0
aI0
aI0
aI0
aI0
aI0
aI0
aI0
aI0
aI0
aI0
aI0
aI0
aI0
aI0
aI0
aI0
aI0
aI0
aI0
aI-1
aI0
aI0
aI0
aI0
aI3
aI0
aI0
aI0
aI0
aI0
aI0
aI0
aI0
aI1
aI1
aVstaff_concentration
p335
aI0
aI0
aI1
aI0
aI0
asI12708
(lp336
I13708
aI0
aNaNaI0
aI0
aI0
aI0
aI0
aI0
aI0
aI0
aI0
aF0.040000000000000001
aI0
aI0
aI0
aI0
aI0
aI0
aI0
aI0
aI0
aI0
aI0
aI0
aI0
aI0
aI0
aI0
aI0
aI0
aI0
aI0
aI-1
aF0.040000000000000001
aI0
aI0
aI0
aI3
aI0
aI0
aI0
aI0
aI0
aI0
aI0
aI0
aI0
aI0
aVstaff_spirit_lore
p337
aI0
aI0
aI1
aI0
aI0
asI12709
(lp338
I13708
aI0
aNaNaI0
aI0
aI0
aI0
aI0
aI0
aI0
aI0
aI0
aF0.040000000000000001
aI0
aI0
aI0
aI0
aI0
aI0
aI0
aI0
aI0
aI0
aI0
aI0
aI0
aI0
aI0
aI0
aI0
aI0
aI0
aI0
aI-1
aI0
aI0
aI0
aI0
aI3
aI0
aI0
aI0
aI0
aI0
aI0
aI0
aI0
aI0
aI0
aVstaff_conservation
p339
aI0
aI0
aI1
aI0
aI0
asI12710
(lp340
I13708
aI0
aNaNaI0
aI0
aI0
aI0
aI0
aI0
aI0
aI0
aI0
aF0.050000000000000003
aI0
aI0
aI0
aI0
aI0
aI0
aI0
aI0
aI0
aI0
aI0
aI0
aI0
aI0
aI0
aI0
aI0
aI0
aI0
aI0
aI-1
aI0
aI0
aI0
aI0
aI3
aI0
aI0
aI0
aI0
aI0
aI0
aI0
aI0
aI0
aI0
aVstaff_harmony
p341
aI0
aI0
aI1
aI0
aI0
asI12900
(lp342
I13711
aI5
aNaNaI1
aI1
aI0
aI0
aI0
aI0
aI0
aI0
aI100
aF0.40000000000000002
aF0.40000000000000002
aI-1
aI0
aI0
aI0
aI0
aI0
aI0
aI0
aI0
aI0
aI0
aI0
aI0
aI0
aI0
aI0
aI0
aI0
aI0
aI-1
aI0
aI0
aI1
aI0
aI1
aI1
aI0
aI0
aI0
aI0
aI0
aI0
aI0
aI1
aI1
aVcannon_shoot
p343
aI6
aI1
aI1
aI1
aI0
asI12901
(lp344
I13711
aI5
aNaNaI1
aI1
aI0
aI0
aI-150
aI0
aI-80
aI-20
aI100
aF0.25
aI3
aI-1
aI10
aI1
aI0
aI0
aI3
aI1300
aI1
aI0
aI0
aI0
aI0
aI0
aI0
aI0
aI0
aI0
aI0
aI0
aI-1
aI0
aI0
aI1
aI1
aI2
aI1
aI0
aI0
aI0
aI0
aI0
aI0
aI0
aI1
aI1
aVcannon_round_shot
p345
aI6
aI1
aI1
aI1
aI0
asI12902
(lp346
I13711
aI5
aI14201
aNaF1.5
aI1
aI0
aI0
aI-75
aI0
aI-20
aI-100
aI100
aF0.25
aI3
aI-1
aI5
aI1
aI0
aI0
aI2
aI950
aI1
aI0
aI0
aI0
aI0
aI0
aI0
aI0
aI0
aI0
aI0
aI0
aI100
aI0
aI0
aI1
aI1
aI2
aI1
aI0
aI0
aI0
aI0
aI0
aI0
aI0
aI1
aI1
aVcannon_chain_shot
p347
aI6
aI1
aI1
aI1
aI0
asI12903
(lp348
I13711
aI5
aI14202
aNaI1
aI1
aI0
aI0
aI-80
aI0
aI-50
aI-40
aI100
aF0.25
aI6
aI-1
aI10
aI0
aI0
aI0
aI1
aI900
aI1
aI0
aI0
aI0
aI0
aI0
aI0
aI0
aI0
aI0
aI0
aI0
aI100
aI0
aI0
aI1
aI1
aI2
aI1
aI0
aI0
aI0
aI0
aI0
aI0
aI0
aI1
aI1
aVcannon_grape_shot
p349
aI30
aI1
aI1
aI1
aI0
asI12904
(lp350
I13711
aI5
aI14203
aNaI1
aI1
aI0
aI0
aI-125
aI0
aI-100
aI-40
aI100
aF0.25
aI3
aI-1
aI10
aI1
aI0
aI0
aI3
aI1300
aI1
aI0
aI0
aI2
aI0
aI0
aI0
aI0
aI0
aI1
aI20
aI2
aI100
aI0
aF0.5
aI1
aI1
aI2
aI1
aI0
aI0
aI0
aI0
aI0
aI0
aI0
aI0
aI0
aVcannon_firebrand
p351
aI9
aI1
aI1
aI1
aI0
asI12905
(lp352
I13711
aI5
aI14204
aNaI3
aI1
aI0
aI0
aI-275
aI0
aI-240
aI-60
aI100
aF0.25
aI3
aI-1
aI0
aI0
aI0
aI0
aI1
aI1700
aI0
aI0
aI0
aI0
aI0
aI0
aI0
aI0
aI0
aI0
aI0
aI0
aI100
aI0
aI0
aI1
aI1
aI2
aI1
aI0
aI0
aI0
aI0
aI0
aI0
aI0
aI0
aI0
aVcannon_thunderbolt
p353
aI16
aI1
aI1
aI1
aI0
asI12906
(lp354
I13711
aI5
aI14205
aNaI20
aI1
aI0
aI0
aI-1500
aI0
aI-960
aI-200
aI90
aF0.25
aI10
aI-1
aI25
aI1
aI0
aI0
aI1
aI750
aI1
aI0
aI0
aI0
aI0
aI0
aI0
aI0
aI0
aI0
aI0
aI0
aI100
aI0
aI0
aI1
aI1
aI2
aI1
aI0
aI0
aI0
aI0
aI0
aI0
aI0
aI0
aI0
aVcannon_explosive
p355
aI9
aI1
aI1
aI1
aI0
asI12907
(lp356
I13711
aI5
aI14206
aNaI1
aI1
aI0
aI0
aI-300
aI0
aI-144
aI-30
aI100
aF0.25
aI3
aI-1
aI0
aI0
aI0
aI0
aI3
aI1300
aI0
aI0
aI0
aI0
aI0
aI0
aI0
aI0
aI0
aI0
aI0
aI0
aI100
aI0
aI0
aI1
aI1
aI2
aI1
aI0
aI0
aI0
aI0
aI0
aI0
aI0
aI0
aI0
aVcannon_fury
p357
aI16
aI1
aI1
aI1
aI0
asI12908
(lp358
I13711
aI5
aNaNaI3
aI1
aI0
aI0
aI0
aI0
aI0
aI0
aI100
aF0.25
aI3
aI-1
aI0
aI0
aI0
aI0
aI1
aI750
aI0
aI0
aI0
aI0
aI0
aI0
aI0
aI0
aI0
aI0
aI0
aI0
aI-1
aI0
aI0
aI1
aI1
aI2
aI1
aI0
aI0
aI0
aI0
aI0
aI0
aI0
aI1
aI1
aVcannon_grapple_hook
p359
aI11
aI1
aI1
aI1
aI0
asI12909
(lp360
I13711
aI0
aNaNaI0
aI0
aI0
aI0
aI0
aI0
aI0
aI0
aI0
aF0.059999999999999998
aI0
aI0
aI0
aI0
aI0
aI0
aI0
aI0
aI0
aI0
aI0
aI0
aI0
aI0
aI0
aI0
aI0
aI0
aI0
aI0
aI-1
aI0
aI0
aI0
aI0
aI3
aI0
aI0
aI0
aI0
aI0
aI0
aI0
aI0
aI1
aI0
aVcannon_scrounger
p361
aI0
aI0
aI1
aI0
aI0
asI12910
(lp362
I13711
aI0
aNaNaI0
aI0
aI0
aI0
aI0
aI0
aI0
aI0
aI0
aF0.050000000000000003
aI0
aI0
aI0
aI0
aI0
aI0
aI0
aI0
aI0
aI0
aI0
aI0
aI0
aI0
aI0
aI0
aI0
aI0
aI0
aI0
aI-1
aI0
aI0
aI0
aI0
aI3
aI0
aI0
aI0
aI0
aI0
aI0
aI0
aI0
aI0
aI1
aVcannon_barrage
p363
aI0
aI0
aI1
aI0
aI0
asI12911
(lp364
I13711
aI0
aNaNaI0
aI0
aI0
aI0
aI0
aI0
aI0
aI0
aI0
aI2
aI0
aI0
aI0
aI0
aI0
aI0
aI0
aI0
aI0
aI0
aI0
aI4
aI0
aI0
aI0
aI0
aI0
aI1
aI4
aI2
aI-1
aI0
aI0
aI0
aI0
aI3
aI0
aI0
aI0
aI0
aI0
aI0
aI0
aI0
aI0
aI0
aVcannon_shrapnel
p365
aI0
aI0
aI1
aI0
aI0
asI12930
(lp366
I13718
aI5
aNaNaI1
aI1
aI0
aI0
aI0
aI0
aI0
aI0
aI100
aF0.40000000000000002
aI0
aI-1
aI0
aI0
aI0
aI0
aI0
aI0
aI0
aI0
aI0
aI0
aI0
aI0
aI0
aI0
aI0
aI0
aI0
aI0
aI-1
aI0
aI0
aI1
aI0
aI1
aI1
aI0
aI0
aI0
aI0
aI0
aI0
aI0
aI1
aI1
aVcannon_shoot
p367
aI6
aI1
aI1
aI1
aI0
asI12931
(lp368
I13718
aI5
aNaNaI1
aI1
aI0
aI0
aI-150
aI0
aI-150
aI-100
aI100
aF0.25
aI1
aI-1
aI10
aI0
aI0
aI0
aI6
aI1300
aI0
aI0
aI0
aI0
aI0
aI0
aI0
aI0
aI0
aI0
aI0
aI0
aI-1
aI0
aI0
aI1
aI1
aI2
aI1
aI0
aI0
aI0
aI0
aI0
aI0
aI0
aI1
aI1
aVcannon_round_shot
p369
aI6
aI1
aI1
aI1
aI0
asI12932
(lp370
I13718
aI5
aNaNaF1.5
aI1
aI0
aI0
aI-75
aI0
aI-75
aI-50
aI100
aF0.25
aI2
aI-1
aI5
aI0
aI0
aI0
aI6
aI750
aI0
aI0
aI0
aI0
aI0
aI0
aI0
aI0
aI0
aI0
aI0
aI0
aI-1
aI0
aI0
aI1
aI1
aI2
aI1
aI0
aI0
aI0
aI0
aI0
aI0
aI0
aI1
aI1
aVpir_t_gui_amo_can_targetedshot
p371
aI6
aI1
aI1
aI1
aI0
asI12933
(lp372
I13718
aI5
aNaNaI3
aI1
aI0
aI0
aI0
aI0
aI0
aI0
aI100
aF0.25
aI5
aI-1
aI0
aI0
aI0
aI0
aI4
aI1700
aI0
aI0
aI0
aI82
aI0
aI0
aI0
aI0
aI0
aI0
aI5
aI4
aI-1
aI0
aI0
aI1
aI1
aI2
aI1
aI0
aI0
aI0
aI0
aI0
aI0
aI0
aI1
aI0
aVpir_t_gui_amo_can_smoke
p373
aI16
aI1
aI1
aI1
aI0
asI12934
(lp374
I13718
aI5
aNaNaI3
aI1
aI0
aI0
aI0
aI0
aI-100
aI-100
aI100
aF0.25
aI12
aI-1
aI0
aI0
aI0
aI0
aI6
aI750
aI0
aI0
aI0
aI0
aI0
aI0
aI0
aI0
aI0
aI0
aI0
aI0
aI-1
aI0
aI0
aI1
aI1
aI2
aI1
aI0
aI0
aI0
aI0
aI0
aI0
aI0
aI1
aI1
aVpir_t_gui_amo_can_mine
p375
aI11
aI1
aI1
aI1
aI0
asI12935
(lp376
I13718
aI5
aNaNaI1
aI1
aI0
aI0
aI-125
aI0
aI-125
aI-80
aI100
aF0.25
aI1
aI-1
aI10
aI0
aI0
aI0
aI3
aI1300
aI0
aI0
aI0
aI81
aI0
aI0
aI0
aI0
aI0
aI1
aI20
aI2
aI-1
aI0
aF0.5
aI1
aI1
aI2
aI1
aI0
aI0
aI0
aI0
aI0
aI0
aI0
aI0
aI0
aVcannon_firebrand
p377
aI9
aI1
aI1
aI1
aI0
asI12936
(lp378
I13718
aI5
aNaNaI1
aI1
aI0
aI0
aI-150
aI0
aI-150
aI-50
aI100
aF0.25
aI2
aI-1
aI10
aI0
aI0
aI0
aI6
aI1300
aI0
aI0
aI0
aI0
aI0
aI0
aI0
aI0
aI0
aI0
aI0
aI0
aI-1
aI0
aI0
aI1
aI1
aI2
aI1
aI0
aI0
aI0
aI0
aI0
aI0
aI0
aI1
aI1
aVpir_t_gui_amo_can_scatter
p379
aI30
aI1
aI1
aI1
aI0
asI12937
(lp380
I13718
aI5
aNaNaI1
aI1
aI0
aI0
aI0
aI0
aI0
aI0
aI100
aF0.25
aI24
aI-1
aI10
aI0
aI0
aI0
aI1
aI1300
aI0
aI0
aI0
aI0
aI0
aI0
aI0
aI0
aI0
aI1
aI0
aI0
aI-1
aI0
aF0.5
aI1
aI1
aI2
aI1
aI0
aI0
aI0
aI0
aI0
aI0
aI0
aI0
aI0
aVpir_t_gui_amo_can_powderKeg
p381
aI9
aI1
aI1
aI1
aI0
asI12938
(lp382
I13718
aI5
aNaNaI1
aI1
aI0
aI0
aI-400
aI0
aI-400
aI-320
aI100
aF0.25
aI1
aI-1
aI0
aI0
aI0
aI0
aI3
aI5000
aI0
aI0
aI0
aI0
aI0
aI0
aI0
aI0
aI0
aI0
aI0
aI0
aI-1
aI0
aI0
aI1
aI1
aI2
aI1
aI0
aI0
aI0
aI0
aI0
aI0
aI0
aI0
aI0
aVpir_t_gui_amo_can_bullet
p383
aI16
aI1
aI1
aI1
aI0
asI12939
(lp384
I13718
aI5
aNaNaI1
aI1
aI0
aI0
aI-100
aI0
aI-300
aI-200
aI100
aF0.25
aI12
aI-1
aI0
aI0
aI0
aI0
aI3
aI1300
aI0
aI0
aI0
aI0
aI0
aI0
aI0
aI0
aI0
aI0
aI0
aI0
aI-1
aI0
aI0
aI1
aI1
aI2
aI1
aI0
aI0
aI0
aI0
aI0
aI0
aI0
aI0
aI0
aVpir_t_gui_amo_can_iceshot
p385
aI16
aI1
aI1
aI1
aI0
asI12940
(lp386
I13718
aI5
aNaNaI1
aI1
aI0
aI0
aI-300
aI0
aI-300
aI-150
aI100
aF0.25
aI4
aI-1
aI70
aI0
aI0
aI0
aI4
aI1300
aI1
aI0
aI0
aI0
aI0
aI0
aI0
aI0
aI0
aI0
aI0
aI0
aI-1
aI0
aI0
aI1
aI1
aI2
aI1
aI0
aI0
aI0
aI0
aI0
aI0
aI0
aI0
aI0
aVcannon_explosive
p387
aI16
aI1
aI1
aI1
aI0
asI12941
(lp388
I13718
aI5
aNaNaI1
aI1
aI0
aI0
aI-300
aI0
aI-2440
aI-2440
aI100
aF0.25
aI14
aI-1
aI0
aI0
aI0
aI0
aI2
aI1300
aI0
aI0
aI0
aI0
aI2
aI0
aI0
aI0
aI0
aI0
aI0
aI0
aI-1
aI0
aI0
aI1
aI1
aI2
aI1
aI0
aI0
aI0
aI0
aI0
aI0
aI0
aI0
aI0
aVpir_t_gui_amo_can_chum
p389
aI16
aI1
aI1
aI1
aI0
asI12942
(lp390
I13718
aI5
aNaNaI1
aI1
aI0
aI0
aI-500
aI0
aI-500
aI-100
aI100
aF0.25
aI8
aI-1
aI200
aI0
aI0
aI0
aI1
aI1300
aI1
aI0
aI0
aI81
aI0
aI0
aI0
aI0
aI0
aI0
aI20
aI2
aI-1
aI0
aI0
aI1
aI1
aI2
aI1
aI0
aI0
aI0
aI0
aI0
aI0
aI0
aI0
aI0
aVpir_t_gui_amo_can_firestorm
p391
aI16
aI1
aI1
aI1
aI0
asI12943
(lp392
I13718
aI5
aNaNaI1
aI1
aI0
aI0
aI0
aI0
aI0
aI0
aI100
aF0.25
aI0
aI-1
aI0
aI0
aI0
aI0
aI3
aI1300
aI0
aI0
aI0
aI0
aI0
aI0
aI0
aI0
aI0
aI0
aI0
aI0
aI-1
aI0
aI0
aI1
aI1
aI2
aI1
aI0
aI0
aI0
aI0
aI0
aI0
aI0
aI0
aI0
aVcannon_round_shot
p393
aI16
aI1
aI1
aI1
aI0
asI12944
(lp394
I13718
aI5
aNaNaI3
aI1
aI0
aI0
aI0
aI0
aI-1200
aI-1200
aI100
aF0.25
aI24
aI-1
aI0
aI0
aI0
aI0
aI1
aI750
aI0
aI0
aI0
aI0
aI0
aI0
aI0
aI0
aI0
aI0
aI0
aI0
aI-1
aI0
aI0
aI1
aI1
aI2
aI1
aI0
aI0
aI0
aI0
aI0
aI0
aI0
aI1
aI1
aVpir_t_gui_amo_can_mine
p395
aI11
aI1
aI1
aI1
aI0
asI12945
(lp396
I13718
aI5
aNaNaI3
aI1
aI0
aI0
aI0
aI0
aI-800
aI-800
aI100
aF0.25
aI0
aI-1
aI0
aI0
aI0
aI0
aI6
aI750
aI0
aI0
aI0
aI0
aI0
aI0
aI0
aI0
aI0
aI0
aI0
aI0
aI-1
aI0
aI0
aI1
aI1
aI2
aI1
aI0
aI0
aI0
aI0
aI0
aI0
aI0
aI1
aI1
aVpir_t_gui_amo_can_mine
p397
aI11
aI1
aI1
aI1
aI0
asI12946
(lp398
I13718
aI5
aNaNaI1
aI1
aI0
aI0
aI-100
aI0
aI-100
aI0
aI100
aF0.25
aI0
aI-1
aI0
aI0
aI0
aI0
aI3
aI1300
aI0
aI0
aI0
aI83
aI0
aI0
aI0
aI0
aI0
aI0
aI5
aI4
aI-1
aI0
aI0
aI1
aI1
aI2
aI1
aI0
aI0
aI0
aI0
aI0
aI0
aI0
aI0
aI0
aVpir_t_gui_amo_can_iceshot
p399
aI16
aI1
aI1
aI1
aI0
asS'columnHeadings'
p400
(dp401
VSHIP_MAXSPEED_INDEX
p402
I42
sVANIM_TIME_INDEX
p403
I54
sVNPC_MODIFIER
p404
I53
sVREPUTATION_INDEX
p405
I4
sVSELF_HP_INDEX
p406
I6
sVNEED_SIGHT
p407
I30
sVPVP_INDEX
p408
I49
sVINSTANT_INDEX
p409
I27
sVSKILL_ICON_INDEX
p410
I50
sVAREA_EFFECT_INDEX
p411
I16
sVACCURACY_INDEX
p412
I12
sVFREE_INDEX
p413
I48
sVDELAY_INDEX
p414
I26
sVSHIP_REVACCEL_INDEX
p415
I43
sVDURATION_INDEX
p416
I32
sVSHIP_TURNRATE_INDEX
p417
I45
sVSELF_MOJO_INDEX
p418
I7
sVREPUTATION_CATEGORY_INDEX
p419
I0
sVLINKED_SKILL
p420
I3
sVNEED_TARGET_INDEX
p421
I28
sVSHIP_REVMAXSPEED_INDEX
p422
I44
sVSHOUT_INDEX
p423
I47
sVUSABLE_IN_AIR
p424
I40
sVSKILL_TYPE
p425
I38
sVTARGET_MOJO_INDEX
p426
I9
sVREACTION_DELAY_INDEX
p427
I36
sVRANGE_INDEX
p428
I15
sVFRIENDLY_FIRE_INDEX
p429
I19
sVATTACK_CLASS_INDEX
p430
I1
sVSPLIT_TARGET_INDEX
p431
I29
sVUPGRADE_INDEX
p432
I13
sVRECUR_INDEX
p433
I33
sVUNATTUNE_INDEX
p434
I24
sVSHIP_MAXTURN_INDEX
p435
I46
sVEFFECT_FLAG_INDEX
p436
I25
sVAREA_EFFECT_SELF_DAMAGE_INDEX
p437
I17
sVAMMO_INVENTORY_TYPE
p438
I2
sVIS_PROJECTILE_INDEX
p439
I5
sVHOSTILE_BUFF
p440
I31
sVSKILL_TRACK_INDEX
p441
I39
sVTARGET_HP_INDEX
p442
I8
sVSHIP_ACCEL_INDEX
p443
I41
sVCENTER_VFX
p444
I52
sVMAX_QUANTITY_INDEX
p445
I34
sVSELF_USE_INDEX
p446
I18
sVNUM_HIT_INDEX
p447
I37
sVAREA_SHAPE_INDEX
p448
I22
sVHULL_HP_INDEX
p449
I10
sVINTERRUPT_INDEX
p450
I23
sVMAX_CHARGE_INDEX
p451
I35
sVHIT_VFX
p452
I51
sVVOLLEY_INDEX
p453
I20
sVSAIL_HP_INDEX
p454
I11
sVRECHARGE_INDEX
p455
I14
sVPROJECTILE_POWER_INDEX
p456
I21
sVNEED_AREA_ANIM_INDEX
p457
I55
ssI12400
(lp458
I13706
aI1
aNaNaI1
aI0
aI0
aI0
aI-9
aI0
aI0
aI0
aI100
aF0.25
aF0.5
aI6
aI0
aI0
aI0
aI0
aI1
aI0
aI0
aI0
aI0
aI26
aI0
aI0
aI1
aI0
aI0
aI1
aI3
aI0
aI-1
aI0
aF0.20000000000000001
aI1
aI0
aI1
aI1
aI0
aI0
aI0
aI0
aI0
aI0
aI0
aI1
aI1
aVdagger_cut
p459
aI11
aI1
aF0.75
aF0.75
aI0
asI12401
(lp460
I13706
aI1
aNaNaI2
aI0
aI0
aI0
aI-26
aI0
aI0
aI0
aI100
aF0.25
aF0.5
aI6
aI0
aI0
aI0
aI0
aI1
aI0
aI0
aI0
aI0
aI26
aI0
aI0
aI1
aI0
aI0
aI1
aI3
aI0
aI-1
aI0
aF0.20000000000000001
aI2
aI0
aI1
aI1
aI0
aI0
aI0
aI0
aI0
aI0
aI0
aI1
aI1
aVdagger_gouge
p461
aI12
aI1
aI1
aF0.58299999999999996
aI0
asI12402
(lp462
I13706
aI1
aNaNaI2
aI0
aI0
aI0
aI-44
aI0
aI0
aI0
aI100
aF0.25
aF0.5
aI6
aI0
aI0
aI0
aI0
aI1
aI0
aI0
aI0
aI0
aI26
aI0
aI0
aI1
aI0
aI0
aI1
aI3
aI0
aI-1
aI0
aF0.56000000000000005
aI1
aI0
aI1
aI1
aI0
aI0
aI0
aI0
aI0
aI0
aI0
aI0
aI0
aVdagger_swipe
p463
aI13
aI1
aF1.5
aF0.95799999999999996
aI0
asI12403
(lp464
I13706
aI1
aNaNaI3
aI0
aI0
aI0
aI-68
aI0
aI0
aI0
aI100
aF0.25
aF0.5
aI6
aI0
aI0
aI0
aI0
aI1
aI0
aI0
aI0
aI0
aI26
aI0
aI0
aI1
aI0
aI0
aI1
aI3
aI0
aI-1
aI0
aF0.20000000000000001
aI3
aI0
aI1
aI1
aI0
aI0
aI0
aI0
aI0
aI0
aI0
aI0
aI0
aVdagger_impale
p465
aI14
aI1
aI2
aF1.5
aI0
asI12404
(lp466
I13706
aI0
aNaNaI0
aI0
aI0
aI0
aI0
aI0
aI0
aI0
aI0
aF0.070000000000000007
aI0
aI0
aI0
aI0
aI0
aI0
aI0
aI0
aI0
aI0
aI0
aI0
aI0
aI0
aI0
aI0
aI0
aI0
aI0
aI0
aI-1
aI0
aI0
aI0
aI0
aI3
aI0
aI0
aI0
aI0
aI0
aI0
aI0
aI0
aI0
aI0
aVcutlass_finesse
p467
aI0
aI0
aI1
aI0
aI0
asI13000
(lp468
I0
aI0
aNaNaI0
aI0
aI0
aI0
aI0
aI0
aI0
aI0
aI100
aI0
aI50
aI0
aI0
aI0
aI1
aI1
aI0
aI0
aI0
aI0
aI0
aI0
aI0
aI1
aI0
aI0
aI0
aI0
aI0
aI0
aI-1
aI0
aF0.40000000000000002
aI1
aI0
aI1
aI1
aI0
aI0
aI0
aI0
aI0
aI0
aI0
aI1
aI0
aVpir_t_ico_pot_tonic
p469
aI0
aI1
aI1
aF0.93999999999999995
aI0
asI13001
(lp470
I0
aI0
aNaNaI0
aI0
aI0
aI0
aI0
aI0
aI0
aI0
aI100
aI0
aI0
aI0
aI0
aI0
aI1
aI1
aI0
aI0
aI0
aI0
aI0
aI0
aI0
aI1
aI0
aI0
aI0
aI0
aI0
aI0
aI-1
aI0
aF0.40000000000000002
aI1
aI0
aI1
aI1
aI0
aI0
aI0
aI0
aI0
aI0
aI0
aI1
aI0
aVpir_t_ico_pot_tonic
p471
aI0
aI1
aI1
aF0.93999999999999995
aI0
asI3000
(lp472
I13713
aI1
aNaNaI1
aI0
aI0
aI0
aI-150
aI0
aI0
aI0
aI100
aF0.25
aI2
aI8
aI0
aI0
aI0
aI0
aI1
aI0
aI0
aI1
aI0
aI26
aI0
aI0
aI1
aI0
aI0
aI1
aI3
aI0
aI-1
aI0
aF0.40000000000000002
aI2
aI1
aI1
aI1
aI0
aI0
aI0
aI0
aI0
aI0
aI0
aI0
aI0
aVcutlass_cleave
p473
aI5
aI1
aI1
aI1
aI0
asI3001
(lp474
I13713
aI2
aNaNaI1
aI0
aI0
aI0
aI-80
aI0
aI0
aI0
aI100
aF0.25
aI2
aI100
aI0
aI0
aI0
aI0
aI1
aI0
aI0
aI1
aI0
aI26
aI0
aI0
aI1
aI0
aI0
aI1
aI3
aI0
aI-1
aI0
aF0.40000000000000002
aI2
aI1
aI1
aI1
aI0
aI0
aI0
aI0
aI0
aI0
aI0
aI0
aI0
aVstaff_concentration
p475
aI0
aI1
aF0.75
aI1
aI0
asI3002
(lp476
I13713
aI3
aNaNaI1
aI0
aI0
aI0
aI-30
aI0
aI0
aI0
aI100
aF0.25
aI30
aI60
aI60
aI0
aI0
aI0
aI1
aI0
aI1
aI1
aI1
aI8
aI0
aI0
aI0
aI0
aI0
aI1
aI20
aI0
aI-1
aI0
aF0.40000000000000002
aI2
aI1
aI1
aI1
aI0
aI0
aI0
aI0
aI0
aI0
aI0
aI0
aI0
aVvoodoo_shackle
p477
aI40
aI1
aF0.25
aI1
aI0
asI3003
(lp478
I13713
aI3
aNaNaI1
aI0
aI0
aI-800
aI-500
aI0
aI0
aI0
aI100
aF0.25
aI30
aI50
aI40
aI0
aI0
aI0
aI1
aI0
aI1
aI1
aI1
aI26
aI0
aI0
aI0
aI0
aI0
aI1
aI5
aI0
aI-1
aI0
aF0.40000000000000002
aI2
aI1
aI1
aI1
aI0
aI0
aI0
aI0
aI0
aI0
aI0
aI0
aI0
aVstaff_shockwave
p479
aI40
aI1
aI4
aI1
aI0
asI3004
(lp480
I13713
aI3
aNaNaI1
aI0
aI0
aI-200
aI0
aI0
aI0
aI0
aI100
aF0.25
aI30
aI60
aI0
aI0
aI0
aI0
aI1
aI0
aI0
aI0
aI0
aI38
aI0
aI0
aI0
aI0
aI0
aI1
aI0
aI0
aI-1
aI0
aF0.40000000000000002
aI2
aI1
aI1
aI1
aI0
aI0
aI0
aI0
aI0
aI0
aI0
aI0
aI0
aVvoodoo_curse
p481
aI0
aI1
aI0
aI1
aI0
asI3005
(lp482
I13713
aI2
aNaNaI1
aI0
aI0
aI0
aI-120
aI0
aI0
aI0
aI100
aF0.25
aI6
aI80
aI25
aI0
aI0
aI0
aI1
aI0
aI1
aI1
aI1
aI6
aI0
aI0
aI1
aI0
aI0
aI1
aI10
aI0
aI-1
aI0
aF0.40000000000000002
aI2
aI1
aI1
aI1
aI0
aI0
aI0
aI0
aI0
aI0
aI0
aI0
aI0
aVgrenade_explosion
p483
aI0
aI1
aF1.5
aI1
aI0
asI3006
(lp484
I13713
aI3
aNaNaI1
aI0
aI0
aI0
aI-60
aI0
aI0
aI0
aI100
aF0.25
aI15
aI70
aI60
aI0
aI0
aI0
aI1
aI0
aI1
aI0
aI0
aI39
aI0
aI0
aI0
aI0
aI0
aI1
aI20
aI2
aI-1
aI0
aF0.40000000000000002
aI2
aI1
aI1
aI1
aI0
aI0
aI0
aI0
aI0
aI0
aI0
aI0
aI0
aVstaff_harmony
p485
aI40
aI1
aI1
aI1
aI0
asI3007
(lp486
I13713
aI1
aNaNaI1
aI0
aI0
aI0
aI-600
aI0
aI0
aI0
aI100
aF0.25
aI10
aI8
aI0
aI0
aI0
aI0
aI1
aI0
aI0
aI0
aI0
aI26
aI0
aI0
aI1
aI0
aI0
aI1
aI3
aI0
aI-1
aI0
aF0.40000000000000002
aI2
aI1
aI1
aI1
aI0
aI0
aI0
aI0
aI0
aI0
aI0
aI0
aI0
aVcutlass_bladestorm
p487
aI10
aI1
aI5
aI1
aI0
asI3008
(lp488
I13713
aI3
aNaNaI1
aI0
aI0
aI0
aI-400
aI0
aI0
aI0
aI100
aF0.25
aI5
aI200
aI0
aI0
aI0
aI0
aI1
aI0
aI0
aI1
aI1
aI2
aI0
aI0
aI1
aI0
aI0
aI1
aI20
aI2
aI-1
aI0
aF0.40000000000000002
aI2
aI1
aI1
aI1
aI0
aI0
aI0
aI0
aI0
aI0
aI0
aI0
aI0
aVstaff_lightning
p489
aI41
aI1
aI4
aI1
aI0
asI11201
(lp490
I0
aI0
aI15002
aNaI0
aI0
aI350
aI100
aI0
aI0
aI0
aI0
aI100
aI0
aI0
aI-1
aI0
aI0
aI0
aI1
aI1
aI0
aI0
aI0
aI0
aI0
aI0
aI1
aI0
aI0
aI0
aI0
aI0
aI0
aI3
aI0
aI0
aI1
aI1
aI4
aI1
aI0
aI0
aI0
aI0
aI0
aI0
aI0
aI1
aI0
aVpir_t_ico_pot_tonic
p491
aI38
aI1
aI1
aI0
aI0
asI11202
(lp492
I0
aI0
aI15003
aNaI0
aI0
aI650
aI250
aI0
aI0
aI0
aI0
aI100
aI0
aI0
aI-1
aI0
aI0
aI0
aI1
aI1
aI0
aI0
aI0
aI0
aI0
aI0
aI1
aI0
aI0
aI0
aI0
aI0
aI0
aI3
aI0
aI0
aI1
aI1
aI4
aI1
aI0
aI0
aI0
aI0
aI0
aI0
aI0
aI1
aI0
aVpir_t_ico_pot_holyWater
p493
aI38
aI1
aI1
aI0
aI0
asI11203
(lp494
I0
aI0
aI15004
aNaI0
aI0
aI1000
aI375
aI0
aI0
aI0
aI0
aI100
aI0
aI0
aI-1
aI0
aI0
aI0
aI1
aI1
aI0
aI0
aI0
aI0
aI0
aI0
aI1
aI0
aI0
aI0
aI0
aI0
aI0
aI3
aI0
aI0
aI1
aI1
aI4
aI1
aI0
aI0
aI0
aI0
aI0
aI0
aI0
aI1
aI0
aVpir_t_ico_pot_elixir
p495
aI38
aI1
aI1
aI0
aI0
asI11204
(lp496
I0
aI0
aI15005
aNaI0
aI0
aI1500
aI500
aI0
aI0
aI0
aI0
aI100
aI0
aI0
aI-1
aI0
aI0
aI0
aI1
aI1
aI0
aI0
aI0
aI0
aI0
aI0
aI1
aI0
aI0
aI0
aI0
aI0
aI0
aI3
aI0
aI0
aI1
aI1
aI4
aI1
aI0
aI0
aI0
aI0
aI0
aI0
aI0
aI1
aI0
aVpir_t_ico_pot_miracleWater
p497
aI38
aI1
aI1
aI0
aI0
asI11205
(lp498
I0
aI0
aI15006
aNaI0
aI0
aI0
aI0
aI0
aI0
aI5000
aI2000
aI100
aI0
aI0
aI-1
aI0
aI0
aI0
aI1
aI1
aI0
aI0
aI0
aI0
aI28
aI0
aI1
aI1
aI0
aI0
aI0
aI0
aI0
aI2
aI0
aI0
aI1
aI1
aI4
aI1
aI0
aI0
aI0
aI0
aI0
aI0
aI0
aI1
aI1
aVsail_come_about
p499
aI0
aI1
aI1
aI0
aI0
asI11206
(lp500
I0
aI0
aI15007
aNaI0
aI0
aI2000
aI800
aI0
aI0
aI0
aI0
aI100
aI0
aI0
aI-1
aI0
aI0
aI0
aI1
aI1
aI0
aI0
aI0
aI0
aI0
aI0
aI1
aI0
aI0
aI0
aI0
aI0
aI0
aI5
aI0
aI0
aI1
aI1
aI4
aI1
aI0
aI0
aI0
aI0
aI0
aI0
aI0
aI1
aI0
aVpir_t_ico_pot_porkTonic
p501
aI38
aI1
aI1
aI0
aI0
asI11207
(lp502
I0
aI0
aI15008
aNaI0
aI0
aI0
aI0
aI0
aI0
aI0
aI0
aI100
aI0
aI0
aI-1
aI0
aI0
aI0
aI1
aI1
aI0
aI0
aI0
aI0
aI41
aI0
aI1
aI0
aI0
aI0
aI0
aI0
aI0
aI3
aI0
aI0
aI1
aI1
aI4
aI1
aI0
aI0
aI0
aI0
aI0
aI0
aI0
aI1
aI0
aVpir_t_gui_pot_cannonDmgUp
p503
aI38
aI1
aI1
aI0
aI0
asI11208
(lp504
I0
aI0
aI15009
aNaI0
aI0
aI0
aI0
aI0
aI0
aI0
aI0
aI100
aI0
aI0
aI-1
aI0
aI0
aI0
aI1
aI1
aI0
aI0
aI0
aI0
aI42
aI0
aI1
aI0
aI0
aI0
aI0
aI0
aI0
aI3
aI0
aI0
aI1
aI1
aI4
aI1
aI0
aI0
aI0
aI0
aI0
aI0
aI0
aI1
aI0
aVpir_t_gui_pot_cannonDmgUp
p505
aI38
aI1
aI1
aI0
aI0
asI11209
(lp506
I0
aI0
aI15010
aNaI0
aI0
aI0
aI0
aI0
aI0
aI0
aI0
aI100
aI0
aI0
aI-1
aI0
aI0
aI0
aI1
aI1
aI0
aI0
aI0
aI0
aI43
aI0
aI1
aI0
aI0
aI0
aI0
aI0
aI0
aI3
aI0
aI0
aI1
aI1
aI4
aI1
aI0
aI0
aI0
aI0
aI0
aI0
aI0
aI1
aI0
aVpir_t_gui_pot_cannonDmgUp
p507
aI38
aI1
aI1
aI0
aI0
asI11210
(lp508
I0
aI0
aI15011
aNaI0
aI0
aI0
aI0
aI0
aI0
aI0
aI0
aI100
aI0
aI0
aI-1
aI0
aI0
aI0
aI1
aI1
aI0
aI0
aI0
aI0
aI44
aI0
aI1
aI0
aI0
aI0
aI0
aI0
aI0
aI3
aI0
aI0
aI1
aI1
aI4
aI1
aI0
aI0
aI0
aI0
aI0
aI0
aI0
aI1
aI0
aVpir_t_gui_pot_gunDmgUp
p509
aI38
aI1
aI1
aI0
aI0
asI11211
(lp510
I0
aI0
aI15012
aNaI0
aI0
aI0
aI0
aI0
aI0
aI0
aI0
aI100
aI0
aI0
aI-1
aI0
aI0
aI0
aI1
aI1
aI0
aI0
aI0
aI0
aI45
aI0
aI1
aI0
aI0
aI0
aI0
aI0
aI0
aI3
aI0
aI0
aI1
aI1
aI4
aI1
aI0
aI0
aI0
aI0
aI0
aI0
aI0
aI1
aI0
aVpir_t_gui_pot_gunDmgUp
p511
aI38
aI1
aI1
aI0
aI0
asI11212
(lp512
I0
aI0
aI15013
aNaI0
aI0
aI0
aI0
aI0
aI0
aI0
aI0
aI100
aI0
aI0
aI-1
aI0
aI0
aI0
aI1
aI1
aI0
aI0
aI0
aI0
aI46
aI0
aI1
aI0
aI0
aI0
aI0
aI0
aI0
aI3
aI0
aI0
aI1
aI1
aI4
aI1
aI0
aI0
aI0
aI0
aI0
aI0
aI0
aI1
aI0
aVpir_t_gui_pot_gunDmgUp
p513
aI38
aI1
aI1
aI0
aI0
asI11213
(lp514
I0
aI0
aI15014
aNaI0
aI0
aI0
aI0
aI0
aI0
aI0
aI0
aI100
aI0
aI0
aI-1
aI0
aI0
aI0
aI1
aI1
aI0
aI0
aI0
aI0
aI47
aI0
aI1
aI0
aI0
aI0
aI0
aI0
aI0
aI3
aI0
aI0
aI1
aI1
aI4
aI1
aI0
aI0
aI0
aI0
aI0
aI0
aI0
aI1
aI0
aVpir_t_gui_pot_swordDmgUp
p515
aI38
aI1
aI1
aI0
aI0
asI11214
(lp516
I0
aI0
aI15015
aNaI0
aI0
aI0
aI0
aI0
aI0
aI0
aI0
aI100
aI0
aI0
aI-1
aI0
aI0
aI0
aI1
aI1
aI0
aI0
aI0
aI0
aI48
aI0
aI1
aI0
aI0
aI0
aI0
aI0
aI0
aI3
aI0
aI0
aI1
aI1
aI4
aI1
aI0
aI0
aI0
aI0
aI0
aI0
aI0
aI1
aI0
aVpir_t_gui_pot_swordDmgUp
p517
aI38
aI1
aI1
aI0
aI0
asI11215
(lp518
I0
aI0
aI15016
aNaI0
aI0
aI0
aI0
aI0
aI0
aI0
aI0
aI100
aI0
aI0
aI-1
aI0
aI0
aI0
aI1
aI1
aI0
aI0
aI0
aI0
aI49
aI0
aI1
aI0
aI0
aI0
aI0
aI0
aI0
aI3
aI0
aI0
aI1
aI1
aI4
aI1
aI0
aI0
aI0
aI0
aI0
aI0
aI0
aI1
aI0
aVpir_t_gui_pot_swordDmgUp
p519
aI38
aI1
aI1
aI0
aI0
asI11216
(lp520
I0
aI0
aI15017
aNaI0
aI0
aI0
aI0
aI0
aI0
aI0
aI0
aI100
aI0
aI0
aI-1
aI0
aI0
aI0
aI1
aI1
aI0
aI0
aI0
aI0
aI50
aI0
aI1
aI0
aI0
aI0
aI0
aI0
aI0
aI3
aI0
aI0
aI1
aI1
aI4
aI1
aI0
aI0
aI0
aI0
aI0
aI0
aI0
aI1
aI0
aVpir_t_gui_pot_voodooDmgUp
p521
aI38
aI1
aI1
aI0
aI0
asI11217
(lp522
I0
aI0
aI15018
aNaI0
aI0
aI0
aI0
aI0
aI0
aI0
aI0
aI100
aI0
aI0
aI-1
aI0
aI0
aI0
aI1
aI1
aI0
aI0
aI0
aI0
aI51
aI0
aI1
aI0
aI0
aI0
aI0
aI0
aI0
aI3
aI0
aI0
aI1
aI1
aI4
aI1
aI0
aI0
aI0
aI0
aI0
aI0
aI0
aI1
aI0
aVpir_t_gui_pot_voodooDmgUp
p523
aI38
aI1
aI1
aI0
aI0
asI11218
(lp524
I0
aI0
aI15019
aNaI0
aI0
aI0
aI0
aI0
aI0
aI0
aI0
aI100
aI0
aI0
aI-1
aI0
aI0
aI0
aI1
aI1
aI0
aI0
aI0
aI0
aI52
aI0
aI1
aI0
aI0
aI0
aI0
aI0
aI0
aI3
aI0
aI0
aI1
aI1
aI4
aI1
aI0
aI0
aI0
aI0
aI0
aI0
aI0
aI1
aI0
aVpir_t_gui_pot_voodooDmgUp
p525
aI38
aI1
aI1
aI0
aI0
asI11219
(lp526
I0
aI0
aI15020
aNaI0
aI0
aI0
aI0
aI0
aI0
aI0
aI0
aI100
aI0
aI0
aI-1
aI0
aI0
aI0
aI1
aI1
aI0
aI0
aI0
aI0
aI53
aI0
aI1
aI0
aI0
aI0
aI0
aI0
aI0
aI3
aI0
aI0
aI1
aI1
aI4
aI1
aI0
aI0
aI0
aI0
aI0
aI0
aI0
aI1
aI0
aVpir_t_gui_pot_haste
p527
aI38
aI1
aI1
aI0
aI0
asI11220
(lp528
I0
aI0
aI15021
aNaI0
aI0
aI0
aI0
aI0
aI0
aI0
aI0
aI100
aI0
aI0
aI-1
aI0
aI0
aI0
aI1
aI1
aI0
aI0
aI0
aI0
aI54
aI0
aI1
aI0
aI0
aI0
aI0
aI0
aI0
aI3
aI0
aI0
aI1
aI1
aI4
aI1
aI0
aI0
aI0
aI0
aI0
aI0
aI0
aI1
aI0
aVpir_t_gui_pot_haste
p529
aI38
aI1
aI1
aI0
aI0
asI11221
(lp530
I0
aI0
aI15022
aNaI0
aI0
aI0
aI0
aI0
aI0
aI0
aI0
aI100
aI0
aI0
aI-1
aI0
aI0
aI0
aI1
aI1
aI0
aI0
aI0
aI0
aI55
aI0
aI1
aI0
aI0
aI0
aI0
aI0
aI0
aI3
aI0
aI0
aI1
aI1
aI4
aI1
aI0
aI0
aI0
aI0
aI0
aI0
aI0
aI1
aI0
aVpir_t_gui_pot_haste
p531
aI38
aI1
aI1
aI0
aI0
asI11222
(lp532
I0
aI0
aI15023
aNaI0
aI0
aI0
aI0
aI0
aI0
aI0
aI0
aI100
aI0
aI0
aI-1
aI0
aI0
aI0
aI1
aI1
aI0
aI0
aI0
aI0
aI56
aI0
aI1
aI0
aI0
aI0
aI0
aI0
aI0
aI3
aI0
aI0
aI1
aI1
aI4
aI1
aI0
aI0
aI0
aI0
aI0
aI0
aI0
aI1
aI0
aVpir_t_gui_pot_repBoost
p533
aI38
aI1
aI1
aI0
aI0
asI11223
(lp534
I0
aI0
aI15024
aNaI0
aI0
aI0
aI0
aI0
aI0
aI0
aI0
aI100
aI0
aI0
aI-1
aI0
aI0
aI0
aI1
aI1
aI0
aI0
aI0
aI0
aI57
aI0
aI1
aI0
aI0
aI0
aI0
aI0
aI0
aI3
aI0
aI0
aI1
aI1
aI4
aI1
aI0
aI0
aI0
aI0
aI0
aI0
aI0
aI1
aI0
aVpir_t_gui_pot_repBoost
p535
aI38
aI1
aI1
aI0
aI0
asI11224
(lp536
I0
aI0
aI15025
aNaI0
aI0
aI0
aI0
aI0
aI0
aI0
aI0
aI100
aI0
aI0
aI-1
aI0
aI0
aI0
aI1
aI1
aI0
aI0
aI0
aI0
aI58
aI0
aI1
aI0
aI0
aI0
aI0
aI0
aI0
aI3
aI0
aI0
aI1
aI1
aI4
aI1
aI0
aI0
aI0
aI0
aI0
aI0
aI0
aI1
aI0
aVpir_t_gui_pot_gold
p537
aI38
aI1
aI1
aI0
aI0
asI11225
(lp538
I0
aI0
aI15026
aNaI0
aI0
aI0
aI0
aI0
aI0
aI0
aI0
aI100
aI0
aI0
aI-1
aI0
aI0
aI0
aI1
aI1
aI0
aI0
aI0
aI0
aI59
aI0
aI1
aI0
aI0
aI0
aI0
aI0
aI0
aI3
aI0
aI0
aI1
aI1
aI4
aI1
aI0
aI0
aI0
aI0
aI0
aI0
aI0
aI1
aI0
aVpir_t_gui_pot_gold
p539
aI38
aI1
aI1
aI0
aI0
asI11226
(lp540
I0
aI0
aI15027
aNaI0
aI0
aI0
aI0
aI0
aI0
aI0
aI0
aI100
aI0
aI0
aI-1
aI0
aI0
aI0
aI1
aI1
aI0
aI0
aI0
aI0
aI60
aI0
aI1
aI0
aI0
aI0
aI0
aI0
aI0
aI3
aI0
aI0
aI1
aI1
aI4
aI1
aI0
aI0
aI0
aI0
aI0
aI0
aI0
aI1
aI0
aVpir_t_gui_pot_invisibility
p541
aI38
aI1
aI1
aI0
aI0
asI11227
(lp542
I0
aI0
aI15028
aNaI0
aI0
aI0
aI0
aI0
aI0
aI0
aI0
aI100
aI0
aI0
aI-1
aI0
aI0
aI0
aI1
aI1
aI0
aI0
aI0
aI0
aI61
aI0
aI1
aI0
aI0
aI0
aI0
aI0
aI0
aI3
aI0
aI0
aI1
aI1
aI4
aI1
aI0
aI0
aI0
aI0
aI0
aI0
aI0
aI1
aI0
aVpir_t_gui_pot_invisibility
p543
aI38
aI1
aI1
aI0
aI0
asI11228
(lp544
I0
aI0
aI15029
aNaI0
aI0
aI0
aI0
aI0
aI0
aI0
aI0
aI100
aI0
aI0
aI-1
aI0
aI0
aI0
aI1
aI1
aI0
aI0
aI0
aI0
aI62
aI0
aI1
aI0
aI0
aI0
aI0
aI0
aI0
aI3
aI0
aI0
aI1
aI1
aI4
aI1
aI0
aI0
aI0
aI0
aI0
aI0
aI0
aI1
aI0
aVpir_t_gui_pot_healthRegeneration
p545
aI38
aI1
aI1
aI0
aI0
asI11229
(lp546
I0
aI0
aI15030
aNaI0
aI0
aI0
aI0
aI0
aI0
aI0
aI0
aI100
aI0
aI0
aI-1
aI0
aI0
aI0
aI1
aI1
aI0
aI0
aI0
aI0
aI63
aI0
aI1
aI0
aI0
aI0
aI0
aI0
aI0
aI3
aI0
aI0
aI1
aI1
aI4
aI1
aI0
aI0
aI0
aI0
aI0
aI0
aI0
aI1
aI0
aVpir_t_gui_pot_healthRegeneration
p547
aI38
aI1
aI1
aI0
aI0
asI11230
(lp548
I0
aI0
aI15031
aNaI0
aI0
aI0
aI0
aI0
aI0
aI0
aI0
aI100
aI0
aI0
aI-1
aI0
aI0
aI0
aI1
aI1
aI0
aI0
aI0
aI0
aI64
aI0
aI1
aI0
aI0
aI0
aI0
aI0
aI0
aI3
aI0
aI0
aI1
aI1
aI4
aI1
aI0
aI0
aI0
aI0
aI0
aI0
aI0
aI1
aI0
aVpir_t_gui_pot_healthRegeneration
p549
aI38
aI1
aI1
aI0
aI0
asI11231
(lp550
I0
aI0
aI15032
aNaI0
aI0
aI0
aI0
aI0
aI0
aI0
aI0
aI100
aI0
aI0
aI-1
aI0
aI0
aI0
aI1
aI1
aI0
aI0
aI0
aI0
aI65
aI0
aI1
aI0
aI0
aI0
aI0
aI0
aI0
aI3
aI0
aI0
aI1
aI1
aI4
aI1
aI0
aI0
aI0
aI0
aI0
aI0
aI0
aI1
aI0
aVpir_t_gui_pot_healthRegeneration
p551
aI38
aI1
aI1
aI0
aI0
asI11232
(lp552
I0
aI0
aI15033
aNaI0
aI0
aI0
aI0
aI0
aI0
aI0
aI0
aI100
aI0
aI0
aI-1
aI0
aI0
aI0
aI1
aI1
aI0
aI0
aI0
aI0
aI66
aI0
aI1
aI0
aI0
aI0
aI0
aI0
aI0
aI3
aI0
aI0
aI1
aI1
aI4
aI1
aI0
aI0
aI0
aI0
aI0
aI0
aI0
aI1
aI0
aVpir_t_gui_pot_burp
p553
aI38
aI1
aI1
aI0
aI0
asI11233
(lp554
I0
aI0
aI15034
aNaI0
aI0
aI0
aI0
aI0
aI0
aI0
aI0
aI100
aI0
aI0
aI-1
aI0
aI0
aI0
aI1
aI1
aI0
aI0
aI0
aI0
aI67
aI0
aI1
aI0
aI0
aI0
aI0
aI0
aI0
aI3
aI0
aI0
aI1
aI1
aI4
aI1
aI0
aI0
aI0
aI0
aI0
aI0
aI0
aI1
aI0
aVpir_t_gui_pot_fart
p555
aI38
aI1
aI1
aI0
aI0
asI11234
(lp556
I0
aI0
aI15035
aNaI0
aI0
aI0
aI0
aI0
aI0
aI0
aI0
aI100
aI0
aI0
aI-1
aI0
aI0
aI0
aI1
aI1
aI0
aI0
aI0
aI0
aI68
aI0
aI1
aI0
aI0
aI0
aI0
aI0
aI0
aI3
aI0
aI0
aI1
aI1
aI4
aI1
aI0
aI0
aI0
aI0
aI0
aI0
aI0
aI1
aI0
aVpir_t_gui_pot_puke
p557
aI38
aI1
aI1
aI0
aI0
asI11235
(lp558
I0
aI0
aI15036
aNaI0
aI0
aI0
aI0
aI0
aI0
aI0
aI0
aI100
aI0
aI0
aI-1
aI0
aI0
aI0
aI1
aI1
aI0
aI0
aI0
aI0
aI69
aI0
aI1
aI0
aI0
aI0
aI0
aI0
aI0
aI3
aI0
aI0
aI1
aI1
aI4
aI1
aI0
aI0
aI0
aI0
aI0
aI0
aI0
aI1
aI0
aVpir_t_gui_pot_headIncrease
p559
aI38
aI1
aI1
aI0
aI0
asI11236
(lp560
I0
aI0
aI15037
aNaI0
aI0
aI0
aI0
aI0
aI0
aI0
aI0
aI100
aI0
aI0
aI-1
aI0
aI0
aI0
aI1
aI1
aI0
aI0
aI0
aI0
aI70
aI0
aI1
aI0
aI0
aI0
aI0
aI0
aI0
aI3
aI0
aI0
aI1
aI1
aI4
aI1
aI0
aI0
aI0
aI0
aI0
aI0
aI0
aI1
aI0
aVpir_t_gui_pot_faceColor
p561
aI38
aI1
aI1
aI0
aI0
asI11237
(lp562
I0
aI0
aI15038
aNaI0
aI0
aI0
aI0
aI0
aI0
aI0
aI0
aI100
aI0
aI0
aI-1
aI0
aI0
aI0
aI1
aI1
aI0
aI0
aI0
aI0
aI71
aI0
aI1
aI0
aI0
aI0
aI0
aI0
aI0
aI3
aI0
aI0
aI1
aI1
aI4
aI1
aI0
aI0
aI0
aI0
aI0
aI0
aI0
aI1
aI0
aVpir_t_gui_pot_avatarDecrease
p563
aI38
aI1
aI1
aI0
aI0
asI11238
(lp564
I0
aI0
aI15039
aNaI0
aI0
aI0
aI0
aI0
aI0
aI0
aI0
aI100
aI0
aI0
aI-1
aI0
aI0
aI0
aI1
aI1
aI0
aI0
aI0
aI0
aI72
aI0
aI1
aI0
aI0
aI0
aI0
aI0
aI0
aI3
aI0
aI0
aI1
aI1
aI4
aI1
aI0
aI0
aI0
aI0
aI0
aI0
aI0
aI1
aI0
aVpir_t_gui_pot_avatarIncrease
p565
aI38
aI1
aI1
aI0
aI0
asI11239
(lp566
I0
aI0
aI15040
aNaI0
aI0
aI0
aI0
aI0
aI0
aI0
aI0
aI100
aI0
aI0
aI-1
aI0
aI0
aI0
aI1
aI1
aI0
aI0
aI0
aI0
aI73
aI0
aI1
aI0
aI0
aI0
aI0
aI0
aI0
aI3
aI0
aI0
aI1
aI1
aI4
aI1
aI0
aI0
aI0
aI0
aI0
aI0
aI0
aI1
aI0
aVpir_t_gui_pot_headOnFire
p567
aI38
aI1
aI1
aI0
aI0
asI11240
(lp568
I0
aI0
aI15041
aNaI0
aI0
aI0
aI0
aI0
aI0
aI0
aI0
aI100
aI0
aI0
aI-1
aI0
aI0
aI0
aI1
aI1
aI0
aI0
aI0
aI0
aI74
aI0
aI1
aI0
aI0
aI0
aI0
aI0
aI0
aI3
aI0
aI0
aI1
aI1
aI4
aI1
aI0
aI0
aI0
aI0
aI0
aI0
aI0
aI1
aI0
aVpir_t_gui_pot_scorpionTransform
p569
aI38
aI1
aI1
aI0
aI0
asI11241
(lp570
I0
aI0
aI15042
aNaI0
aI0
aI0
aI0
aI0
aI0
aI0
aI0
aI100
aI0
aI0
aI-1
aI0
aI0
aI0
aI1
aI1
aI0
aI0
aI0
aI0
aI75
aI0
aI1
aI0
aI0
aI0
aI0
aI0
aI0
aI3
aI0
aI0
aI1
aI1
aI4
aI1
aI0
aI0
aI0
aI0
aI0
aI0
aI0
aI1
aI0
aVpir_t_gui_pot_alligatorTransform
p571
aI38
aI1
aI1
aI0
aI0
asI11242
(lp572
I0
aI0
aI15043
aNaI0
aI0
aI0
aI0
aI0
aI0
aI0
aI0
aI100
aI0
aI0
aI-1
aI0
aI0
aI0
aI1
aI1
aI0
aI0
aI0
aI0
aI76
aI0
aI1
aI0
aI0
aI0
aI0
aI0
aI0
aI3
aI0
aI0
aI1
aI1
aI4
aI1
aI0
aI0
aI0
aI0
aI0
aI0
aI0
aI1
aI0
aVpir_t_gui_pot_crabTransform
p573
aI38
aI1
aI1
aI0
aI0
asI11243
(lp574
I0
aI0
aI15044
aNaI0
aI0
aI0
aI0
aI0
aI0
aI0
aI0
aI100
aI0
aI0
aI-1
aI0
aI0
aI0
aI1
aI1
aI0
aI0
aI0
aI0
aI77
aI0
aI1
aI0
aI0
aI0
aI0
aI0
aI0
aI3
aI0
aI0
aI1
aI1
aI4
aI1
aI0
aI0
aI0
aI0
aI0
aI0
aI0
aI1
aI0
aVpir_t_gui_pot_targeted
p575
aI38
aI1
aI1
aI0
aI0
asI11244
(lp576
I0
aI0
aI15045
aNaI0
aI0
aI0
aI0
aI0
aI0
aI0
aI0
aI100
aI0
aI0
aI-1
aI0
aI0
aI0
aI1
aI1
aI0
aI0
aI0
aI0
aI78
aI0
aI1
aI0
aI0
aI0
aI0
aI0
aI0
aI3
aI0
aI0
aI1
aI1
aI4
aI1
aI0
aI0
aI0
aI0
aI0
aI0
aI0
aI1
aI0
aVpir_t_gui_pot_targeted
p577
aI38
aI1
aI1
aI0
aI0
asI11245
(lp578
I0
aI0
aI15046
aNaI0
aI0
aI0
aI0
aI0
aI0
aI0
aI0
aI100
aI0
aI0
aI-1
aI0
aI0
aI0
aI1
aI1
aI0
aI0
aI0
aI0
aI79
aI0
aI1
aI0
aI0
aI0
aI0
aI0
aI0
aI3
aI0
aI0
aI1
aI1
aI4
aI1
aI0
aI0
aI0
aI0
aI0
aI0
aI0
aI1
aI0
aVpir_t_gui_pot_targeted
p579
aI38
aI1
aI1
aI0
aI0
asI11246
(lp580
I0
aI0
aI15047
aNaI0
aI0
aI0
aI0
aI0
aI0
aI0
aI0
aI100
aI0
aI0
aI-1
aI0
aI0
aI0
aI1
aI1
aI0
aI0
aI0
aI0
aI80
aI0
aI1
aI0
aI0
aI0
aI0
aI0
aI0
aI3
aI0
aI0
aI1
aI1
aI4
aI1
aI0
aI0
aI0
aI0
aI0
aI0
aI0
aI1
aI0
aVpir_t_gui_pot_removeGroggy
p581
aI38
aI1
aI1
aI0
aI0
asI11247
(lp582
I0
aI0
aI15048
aNaI0
aI0
aI0
aI0
aI0
aI0
aI0
aI0
aI100
aI0
aI0
aI-1
aI0
aI0
aI0
aI1
aI1
aI0
aI0
aI0
aI0
aI84
aI0
aI1
aI0
aI0
aI0
aI0
aI0
aI0
aI3
aI0
aI0
aI1
aI1
aI4
aI1
aI0
aI0
aI0
aI0
aI0
aI0
aI0
aI1
aI0
aVpir_t_gui_pot_repBoost
p583
aI38
aI1
aI1
aI0
aI0
asI11248
(lp584
I0
aI0
aI15049
aNaI0
aI0
aI0
aI0
aI0
aI0
aI0
aI0
aI100
aI0
aI0
aI-1
aI0
aI0
aI0
aI1
aI1
aI0
aI0
aI0
aI0
aI85
aI0
aI1
aI0
aI0
aI0
aI0
aI0
aI0
aI3
aI0
aI0
aI1
aI1
aI4
aI1
aI0
aI0
aI0
aI0
aI0
aI0
aI0
aI1
aI0
aVpir_t_gui_pot_fart
p585
aI38
aI1
aI1
aI0
aI0
asI11251
(lp586
I0
aI0
aI15052
aNaI0
aI0
aI0
aI0
aI0
aI0
aI0
aI0
aI100
aI0
aI0
aI-1
aI0
aI0
aI0
aI1
aI1
aI0
aI0
aI0
aI0
aI88
aI0
aI1
aI0
aI0
aI0
aI0
aI0
aI0
aI3
aI0
aI0
aI1
aI1
aI4
aI1
aI0
aI0
aI0
aI0
aI0
aI0
aI0
aI1
aI0
aVpir_t_gui_pot_removeGroggy
p587
aI38
aI1
aI1
aI0
aI0
asI11252
(lp588
I0
aI0
aI15053
aNaI0
aI0
aI0
aI0
aI0
aI0
aI0
aI0
aI100
aI0
aI0
aI-1
aI0
aI0
aI0
aI1
aI1
aI0
aI0
aI0
aI0
aI89
aI0
aI1
aI0
aI0
aI0
aI0
aI0
aI0
aI3
aI0
aI0
aI1
aI1
aI4
aI1
aI0
aI0
aI0
aI0
aI0
aI0
aI0
aI1
aI0
aVpir_t_gui_pot_repBoost
p589
aI38
aI1
aI1
aI0
aI0
asI3100
(lp590
I13713
aI1
aNaNaI1
aI0
aI0
aI-30
aI-75
aI-30
aI0
aI0
aI100
aF0.25
aF0.5
aI6
aI25
aI0
aI0
aI0
aI1
aI0
aI1
aI0
aI0
aI26
aI0
aI0
aI0
aI0
aI0
aI1
aI3
aI0
aI-1
aI0
aF0.10000000000000001
aI1
aI0
aI1
aI1
aI0
aI0
aI0
aI0
aI0
aI0
aI0
aI0
aI0
aVvoodoo_curse
p591
aI31
aI1
aI1
aI2
aI0
asI3101
(lp592
I13713
aI1
aNaNaI1
aI0
aI0
aI0
aI-10000
aI0
aI0
aI0
aI100
aF0.25
aF0.5
aI7
aI25
aI0
aI0
aI0
aI1
aI0
aI1
aI0
aI0
aI26
aI0
aI0
aI0
aI0
aI0
aI1
aI3
aI0
aI-1
aI0
aF0.10000000000000001
aI1
aI0
aI1
aI1
aI0
aI0
aI0
aI0
aI0
aI0
aI0
aI0
aI0
aVvoodoo_curse
p593
aI10
aI1
aI100
aI2
aI0
asI3102
(lp594
I13703
aI0
aNaNaI0
aI0
aI0
aI0
aI0
aI0
aI0
aI0
aI100
aI0
aI180
aI200
aI0
aI0
aI1
aI0
aI0
aI0
aI0
aI0
aI0
aI201
aI0
aI0
aI0
aI0
aI0
aI0
aI0
aI0
aI-1
aI0
aI0
aI1
aI1
aI1
aI1
aI0
aI0
aI0
aI0
aI0
aI0
aI0
aI0
aI0
aVvoodoo_curse
p595
aI0
aI0
aI1
aI1
aI0
asI11300
(lp596
I0
aI0
aI11300
aNaI0
aI0
aI0
aI0
aI0
aI0
aI0
aI0
aI100
aI0
aI0
aI-1
aI0
aI0
aI0
aI1
aI1
aI0
aI0
aI0
aI0
aI0
aI0
aI1
aI0
aI0
aI0
aI0
aI0
aI0
aI3
aI0
aI0
aI1
aI1
aI4
aI1
aI0
aI0
aI0
aI0
aI0
aI0
aI0
aI1
aI0
aVpir_t_gui_fsh_stall
p597
aI38
aI1
aI1
aI0
aI0
asI11301
(lp598
I0
aI0
aI11301
aNaI0
aI0
aI0
aI0
aI0
aI0
aI0
aI0
aI100
aI0
aI0
aI-1
aI0
aI0
aI0
aI1
aI1
aI0
aI0
aI0
aI0
aI0
aI0
aI1
aI0
aI0
aI0
aI0
aI0
aI0
aI3
aI0
aI0
aI1
aI1
aI4
aI1
aI0
aI0
aI0
aI0
aI0
aI0
aI0
aI1
aI0
aVpir_t_gui_fsh_sink
p599
aI38
aI1
aI1
aI0
aI0
asI3200
(lp600
I13713
aI4
aNaNaI1
aI0
aI0
aI0
aI-75
aI0
aI0
aI0
aI100
aF0.25
aI0
aI0
aI7
aI0
aI0
aI0
aI1
aI0
aI1
aI1
aI1
aI156
aI0
aI0
aI0
aI0
aI0
aI1
aI3
aI0
aI-1
aI0
aF0.10000000000000001
aI2
aI0
aI1
aI1
aI0
aI0
aI0
aI0
aI0
aI0
aI0
aI0
aI0
aVgrenade_explosion
p601
aI9
aI1
aI10
aI1
aI0
asI3300
(lp602
I13713
aI4
aNaNaI1
aI0
aI0
aI0
aI-1000
aI0
aI0
aI0
aI100
aF0.25
aI2
aI8
aI30
aI0
aI0
aI0
aI1
aI0
aI1
aI1
aI1
aI156
aI0
aI0
aI0
aI0
aI0
aI1
aI6
aI0
aI-1
aI0
aF0.40000000000000002
aI2
aI0
aI1
aI1
aI0
aI0
aI0
aI0
aI0
aI0
aI0
aI0
aI0
aVgrenade_explosion
p603
aI42
aI1
aI50
aI1
aI0
asI3301
(lp604
I13713
aI4
aNaNaI1
aI0
aI0
aI0
aI-1000
aI0
aI0
aI0
aI100
aF0.25
aI2
aI8
aI30
aI0
aI0
aI0
aI1
aI0
aI1
aI1
aI1
aI156
aI0
aI0
aI0
aI0
aI0
aI1
aI6
aI0
aI-1
aI0
aF0.40000000000000002
aI2
aI0
aI1
aI1
aI0
aI0
aI0
aI0
aI0
aI0
aI0
aI0
aI0
aVgrenade_explosion
p605
aI42
aI1
aI50
aI1
aI0
asI2260
(lp606
I13709
aI3
aNaNaI0
aI0
aI0
aI0
aI0
aI0
aI0
aI0
aI100
aI0
aI0
aI0
aI0
aI0
aI0
aI1
aI1
aI0
aI0
aI0
aI0
aI0
aI0
aI1
aI0
aI0
aI0
aI0
aI0
aI0
aI-1
aI0
aF0.10000000000000001
aI1
aI0
aI1
aI1
aI0
aI0
aI0
aI0
aI0
aI0
aI0
aI1
aI1
aVvoodoo_hasten
p607
aI0
aI2
aI1
aF2.625
aI0
asI12501
(lp608
I13707
aI4
aNaNaF1.5
aI1
aI0
aI0
aI-90
aI0
aI0
aI0
aI100
aF0.25
aI1
aI50
aI10
aI1
aI0
aI0
aI1
aI40
aI1
aI0
aI0
aI0
aI0
aI0
aI0
aI0
aI0
aI0
aI0
aI0
aI-1
aI0
aI0
aI1
aI1
aI2
aI1
aI0
aI0
aI0
aI0
aI0
aI0
aI0
aI1
aI1
aVgrenade_throw
p609
aI0
aI2
aI1
aI0
aI0
asI3400
(lp610
I13712
aI0
aNaNaI4
aI0
aI0
aI0
aI0
aI0
aI0
aI0
aI100
aF0.25
aI60
aI-1
aI150
aI1
aI0
aI1
aI0
aI0
aI1
aI0
aI0
aI108
aI0
aI0
aI0
aI0
aI0
aI0
aI6
aI0
aI-1
aI0
aI0
aI1
aI0
aI2
aI1
aI0
aI0
aI0
aI0
aI0
aI0
aI1
aI0
aI0
aVsail_broadside_right
p611
aI0
aI1
aI1
aI0
aI0
asI3401
(lp612
I13712
aI0
aNaNaI4
aI0
aI0
aI0
aI0
aI0
aI0
aI0
aI100
aF0.25
aI60
aI-1
aI150
aI1
aI0
aI1
aI0
aI0
aI1
aI0
aI0
aI109
aI0
aI0
aI0
aI0
aI0
aI0
aI6
aI0
aI-1
aI0
aI0
aI1
aI0
aI2
aI1
aI0
aI0
aI0
aI0
aI0
aI0
aI1
aI0
aI0
aVcannon_chain_shot
p613
aI0
aI1
aI1
aI0
aI0
asI3402
(lp614
I13712
aI0
aNaNaI4
aI0
aI0
aI0
aI0
aI0
aI0
aI0
aI100
aF0.25
aI60
aI-1
aI150
aI1
aI0
aI1
aI0
aI0
aI1
aI0
aI0
aI110
aI0
aI0
aI0
aI0
aI0
aI0
aI6
aI0
aI-1
aI0
aI0
aI1
aI0
aI2
aI1
aI0
aI0
aI0
aI0
aI0
aI0
aI1
aI0
aI0
aVgrenade_explosion
p615
aI0
aI1
aI1
aI0
aI0
asI3403
(lp616
I13712
aI0
aNaNaI4
aI0
aI0
aI0
aI0
aI0
aI0
aI0
aI100
aF0.25
aI45
aI-1
aI0
aI0
aI0
aI1
aI0
aI0
aI0
aI0
aI0
aI111
aI0
aI0
aI0
aI0
aI0
aI0
aI10
aI0
aI-1
aI0
aI0
aI1
aI0
aI2
aI1
aI0
aI0
aI0
aI0
aI0
aI0
aI1
aI0
aI0
aVgrenade_demolition
p617
aI0
aI1
aI1
aI0
aI0
asI3404
(lp618
I13712
aI0
aNaNaI4
aI0
aI0
aI0
aI0
aI0
aI0
aI0
aI100
aF0.25
aI45
aI-1
aI0
aI0
aI0
aI1
aI0
aI0
aI0
aI0
aI0
aI112
aI0
aI0
aI0
aI0
aI0
aI0
aI15
aI0
aI-1
aI0
aI0
aI1
aI0
aI2
aI1
aI0
aI0
aI0
aI0
aI0
aI0
aI1
aI0
aI0
aVsail_tacking
p619
aI0
aI1
aI1
aI0
aI0
asI3500
(lp620
I0
aI0
aNaNaI0
aI0
aI0
aI-50
aI0
aI0
aI0
aI0
aI100
aF0.25
aI30
aI0
aI0
aI0
aI1
aI0
aI0
aI0
aI0
aI0
aI0
aI15
aI0
aI0
aI0
aI0
aI0
aI0
aI0
aI0
aI-1
aI0
aI0
aI1
aI1
aI1
aI1
aI0
aI0
aI0
aI0
aI0
aI0
aI0
aI0
aI0
aVstaff_conservation
p621
aI43
aI2
aI1
aF2.625
aI0
asI3501
(lp622
I0
aI0
aNaNaI0
aI0
aI0
aI0
aI0
aI0
aI0
aI0
aI100
aF0.25
aI30
aI0
aI0
aI0
aI1
aI0
aI0
aI0
aI0
aI0
aI0
aI158
aI0
aI0
aI0
aI0
aI0
aI0
aI20
aI0
aI-1
aI0
aI0
aI1
aI1
aI5
aI1
aI0
aI0
aI0
aI0
aI0
aI0
aI0
aI0
aI0
aVvoodoo_free
p623
aI0
aI2
aI1
aF2.625
aI0
asI3502
(lp624
I0
aI0
aNaNaI0
aI0
aI0
aI0
aI0
aI0
aI0
aI0
aI100
aF0.25
aI30
aI0
aI0
aI0
aI0
aI0
aI0
aI0
aI0
aI0
aI0
aI0
aI0
aI0
aI0
aI0
aI0
aI0
aI0
aI0
aI-1
aI0
aI0
aI1
aI1
aI6
aI1
aI0
aI0
aI0
aI0
aI0
aI0
aI0
aI0
aI0
aVcutlass_parry
p625
aI0
aI2
aI1
aF2.625
aI0
asI3503
(lp626
I0
aI0
aNaNaI0
aI0
aI0
aI0
aI0
aI0
aI0
aI0
aI100
aF0.25
aI30
aI0
aI0
aI0
aI0
aI0
aI0
aI0
aI0
aI0
aI0
aI0
aI0
aI0
aI0
aI0
aI0
aI0
aI0
aI0
aI-1
aI0
aI0
aI1
aI1
aI6
aI1
aI0
aI0
aI0
aI0
aI0
aI0
aI0
aI0
aI0
aVstaff_concentration
p627
aI0
aI2
aI1
aF2.625
aI0
asI3504
(lp628
I0
aI0
aNaNaI0
aI0
aI0
aI0
aI400
aI0
aI0
aI0
aI100
aF0.25
aI20
aI0
aI20
aI0
aI0
aI1
aI0
aI0
aI1
aI0
aI0
aI0
aI0
aI0
aI0
aI0
aI0
aI0
aI20
aI0
aI-1
aI0
aI0
aI1
aI1
aI5
aI1
aI0
aI0
aI0
aI0
aI0
aI0
aI0
aI0
aI0
aVgrenade_determination2
p629
aI0
aI2
aI1
aF2.625
aI0
asI3505
(lp630
I0
aI0
aNaNaI0
aI0
aI0
aI0
aI0
aI0
aI0
aI0
aI100
aF0.25
aI30
aI12
aI0
aI0
aI0
aI0
aI1
aI0
aI0
aI0
aI0
aI160
aI0
aI0
aI1
aI0
aI0
aI1
aI30
aI0
aI-1
aI0
aF0.5
aI1
aI0
aI2
aI0
aI0
aI0
aI0
aI0
aI0
aI0
aI0
aI1
aI0
aVsail_openfire2
p631
aI0
aI1
aI1
aF0.80000000000000004
aI0
asI3506
(lp632
I0
aI0
aNaNaI0
aI0
aI0
aI-50
aI0
aI0
aI0
aI0
aI100
aF0.25
aI30
aI0
aI0
aI0
aI1
aI0
aI0
aI0
aI0
aI0
aI0
aI165
aI0
aI0
aI0
aI0
aI0
aI0
aI10
aI0
aI-1
aI0
aI0
aI1
aI1
aI5
aI1
aI0
aI0
aI0
aI0
aI0
aI0
aI0
aI0
aI0
aVstaff_focus
p633
aI0
aI2
aI1
aI1
aI0
asI3507
(lp634
I0
aI0
aNaNaI0
aI0
aI0
aI0
aI0
aI0
aI0
aI0
aI100
aF0.25
aI0
aI0
aI0
aI0
aI0
aI0
aI0
aI0
aI0
aI0
aI0
aI0
aI0
aI0
aI0
aI0
aI0
aI0
aI10
aI0
aI-1
aI0
aI0
aI1
aI1
aI6
aI1
aI0
aI0
aI0
aI0
aI0
aI0
aI0
aI0
aI0
aVstaff_focus
p635
aI0
aI2
aI1
aI1
aI0
asI3508
(lp636
I0
aI0
aNaNaI0
aI0
aI0
aI0
aI300
aI0
aI0
aI0
aI100
aF0.25
aI30
aI-1
aI0
aI0
aI1
aI0
aI1
aI0
aI0
aI0
aI0
aI161
aI0
aI0
aI0
aI0
aI0
aI0
aI20
aI0
aI-1
aI0
aI0
aI1
aI1
aI5
aI1
aI0
aI0
aI0
aI0
aI0
aI0
aI0
aI0
aI0
aVgrenade_toughness
p637
aI45
aI2
aI1
aF0.625
aI0
asI3509
(lp638
I0
aI0
aNaNaI0
aI0
aI250
aI50
aI0
aI0
aI0
aI0
aI100
aF0.25
aI30
aI0
aI0
aI0
aI1
aI0
aI0
aI0
aI0
aI0
aI0
aI0
aI0
aI0
aI0
aI0
aI0
aI0
aI0
aI0
aI-1
aI0
aI0
aI1
aI1
aI1
aI1
aI0
aI0
aI0
aI0
aI0
aI0
aI0
aI1
aI0
aVvoodoo_cure
p639
aI38
aI2
aI1
aF2.625
aI0
asI3510
(lp640
I0
aI0
aNaNaI0
aI0
aI0
aI0
aI0
aI0
aI0
aI0
aI100
aF0.25
aI30
aI0
aI0
aI0
aI1
aI0
aI0
aI0
aI0
aI0
aI0
aI168
aI0
aI0
aI0
aI0
aI0
aI0
aI12
aI0
aI-1
aI0
aI0
aI1
aI1
aI2
aI1
aI0
aI0
aI0
aI0
aI0
aI0
aI0
aI0
aI0
aVvoodoo_life_drain
p641
aI0
aI2
aI1
aF2.625
aI0
asI3600
(lp642
I0
aI4
aNaNaI1
aI0
aI0
aI0
aI-1000
aI0
aI0
aI0
aI100
aF0.25
aI2
aI8
aI30
aI0
aI0
aI0
aI1
aI0
aI1
aI1
aI1
aI156
aI0
aI0
aI0
aI0
aI0
aI1
aI6
aI0
aI-1
aI0
aF0.40000000000000002
aI2
aI0
aI1
aI1
aI0
aI0
aI0
aI0
aI0
aI0
aI0
aI0
aI0
aVgrenade_explosion
p643
aI42
aI1
aI50
aI1
aI0
asI3601
(lp644
I0
aI1
aNaNaI1
aI0
aI0
aI0
aI-5
aI0
aI0
aI0
aI80
aF0.25
aI1
aI6
aI0
aI0
aI0
aI0
aI1
aI0
aI0
aI0
aI0
aI0
aI0
aI0
aI1
aI0
aI0
aI1
aI0
aI0
aI-1
aI0
aF0.10000000000000001
aI1
aI0
aI1
aI1
aI0
aI0
aI0
aI0
aI0
aI0
aI0
aI1
aI1
aVcutlass_stab
p645
aI0
aI1
aI1
aI1
aI0
asI3602
(lp646
I0
aI1
aNaNaI1
aI0
aI0
aI0
aI-12
aI0
aI0
aI0
aI100
aF0.25
aF0.5
aI6
aI0
aI0
aI0
aI0
aI1
aI0
aI0
aI0
aI0
aI3
aI0
aI0
aI1
aI0
aI0
aI1
aI3
aI0
aI-1
aI0
aF0.22
aI1
aI0
aI1
aI1
aI0
aI0
aI0
aI0
aI0
aI0
aI0
aI1
aI1
aVcutlass_stab
p647
aI1
aI1
aF0.75
aF0.625
aI0
asI3701
(lp648
I13703
aI1
aNaNaI4
aI0
aI0
aI-80
aI-150
aI0
aI0
aI0
aI100
aF0.25
aI60
aI6
aI15
aI0
aI0
aI0
aI1
aI0
aI1
aI0
aI0
aI163
aI0
aI0
aI1
aI0
aI0
aI1
aI10
aI2
aI-1
aI0
aF0.59999999999999998
aI1
aI0
aI5
aI0
aI0
aI0
aI0
aI0
aI0
aI0
aI0
aI1
aI1
aVpir_t_gui_amo_can_firestorm
p649
aI9
aI1
aF1.25
aF1.4199999999999999
aI0
asI3702
(lp650
I13703
aI1
aNaNaI4
aI0
aI0
aI-120
aI-150
aI0
aI0
aI0
aI100
aF0.25
aI60
aI6
aI15
aI0
aI0
aI0
aI1
aI0
aI1
aI0
aI0
aI164
aI0
aI0
aI1
aI0
aI0
aI1
aI3
aI0
aI-1
aI0
aF0.59999999999999998
aI1
aI0
aI5
aI0
aI0
aI0
aI0
aI0
aI0
aI0
aI0
aI1
aI1
aVdagger_blade_instinct
p651
aI31
aI1
aF1.25
aF1.4199999999999999
aI0
asI3703
(lp652
I13703
aI1
aNaNaI4
aI0
aI0
aI-160
aI-300
aI0
aI0
aI0
aI100
aF0.25
aI60
aI6
aI15
aI0
aI0
aI0
aI1
aI0
aI1
aI0
aI0
aI26
aI0
aI0
aI1
aI0
aI0
aI1
aI3
aI0
aI-1
aI0
aF0.59999999999999998
aI1
aI0
aI5
aI0
aI0
aI0
aI0
aI0
aI0
aI0
aI0
aI1
aI1
aVstaff_lightning
p653
aI44
aI1
aF1.25
aF1.4199999999999999
aI0
asI11200
(lp654
I0
aI0
aI15001
aNaI0
aI0
aI200
aI50
aI0
aI0
aI0
aI0
aI100
aI0
aI0
aI-1
aI0
aI0
aI0
aI1
aI1
aI0
aI0
aI0
aI0
aI0
aI0
aI1
aI0
aI0
aI0
aI0
aI0
aI0
aI3
aI0
aI0
aI1
aI1
aI4
aI1
aI0
aI0
aI0
aI0
aI0
aI0
aI0
aI1
aI0
aVpir_t_ico_pot_tonic
p655
aI38
aI1
aI1
aI0
aI0
asI31002
(lp656
I13716
aI1
aNaNaI6
aI0
aI0
aI0
aI-1
aI0
aI0
aI0
aI100
aF0.25
aI30
aI6
aI0
aI0
aI0
aI0
aI1
aI0
aI0
aI0
aI0
aI26
aI0
aI0
aI1
aI0
aI0
aI1
aI3
aI0
aI-1
aI0
aF0.69999999999999996
aI1
aI0
aI1
aI1
aI0
aI0
aI0
aI0
aI0
aI0
aI0
aI1
aI1
aVpir_t_gui_fsh_heal
p657
aI5
aI1
aF1.25
aF1.125
aI0
asI31003
(lp658
I13716
aI1
aNaNaI13
aI0
aI0
aI0
aI-1
aI0
aI0
aI0
aI100
aF0.25
aI30
aI6
aI0
aI0
aI0
aI0
aI1
aI0
aI0
aI0
aI0
aI26
aI0
aI0
aI1
aI0
aI0
aI1
aI3
aI0
aI-1
aI0
aF0.59999999999999998
aI3
aI0
aI1
aI1
aI0
aI0
aI0
aI0
aI0
aI0
aI0
aI0
aI0
aVpir_t_gui_fsh_tug
p659
aI4
aI1
aF1.5
aF1.5800000000000001
aI0
asI31004
(lp660
I13716
aI1
aNaNaI16
aI0
aI0
aI0
aI-1
aI0
aI0
aI0
aI100
aF0.25
aI10
aI6
aI0
aI0
aI0
aI0
aI1
aI0
aI0
aI0
aI0
aI26
aI0
aI0
aI1
aI0
aI0
aI1
aI3
aI0
aI-1
aI0
aF0.59999999999999998
aI3
aI0
aI1
aI1
aI0
aI0
aI0
aI0
aI0
aI0
aI0
aI0
aI0
aVpir_t_gui_fsh_sink
p661
aI4
aI1
aF1.5
aF1.5800000000000001
aI0
asI31005
(lp662
I13716
aI1
aNaNaI17
aI0
aI0
aI0
aI-1
aI0
aI0
aI0
aI100
aF0.25
aI20
aI6
aI0
aI0
aI0
aI0
aI1
aI0
aI0
aI0
aI0
aI26
aI0
aI0
aI1
aI0
aI0
aI1
aI3
aI0
aI-1
aI0
aF0.59999999999999998
aI3
aI0
aI1
aI1
aI0
aI0
aI0
aI0
aI0
aI0
aI0
aI0
aI0
aVpir_t_gui_fsh_oceanEye
p663
aI4
aI1
aF1.5
aF1.5800000000000001
aI0
asI12000
(lp664
I13702
aI1
aNaNaI1
aI0
aI0
aI0
aI-5
aI0
aI0
aI0
aI80
aF0.25
aI1
aI6
aI0
aI0
aI0
aI0
aI1
aI0
aI0
aI0
aI0
aI0
aI0
aI0
aI1
aI0
aI0
aI1
aI0
aI0
aI-1
aI0
aF0.10000000000000001
aI1
aI0
aI1
aI1
aI0
aI0
aI0
aI0
aI0
aI0
aI0
aI1
aI1
aVcutlass_stab
p665
aI0
aI1
aI1
aI1
aI0
asI12100
(lp666
I13703
aI1
aNaNaI1
aI0
aI0
aI0
aI-12
aI0
aI0
aI0
aI100
aF0.25
aF0.5
aI6
aI0
aI0
aI0
aI0
aI1
aI0
aI0
aI0
aI0
aI26
aI0
aI0
aI1
aI0
aI0
aI1
aI3
aI0
aI-1
aI0
aF0.22
aI1
aI0
aI1
aI1
aI0
aI0
aI0
aI0
aI0
aI0
aI0
aI1
aI1
aVcutlass_hack
p667
aI1
aI1
aF0.75
aF0.625
aI0
asI12101
(lp668
I13703
aI1
aNaNaI2
aI0
aI0
aI0
aI-33
aI0
aI0
aI0
aI100
aF0.25
aF0.5
aI6
aI0
aI0
aI0
aI0
aI1
aI0
aI0
aI0
aI0
aI26
aI0
aI0
aI1
aI0
aI0
aI1
aI3
aI0
aI-1
aI0
aF0.46000000000000002
aI1
aI0
aI1
aI1
aI0
aI0
aI0
aI0
aI0
aI0
aI0
aI1
aI1
aVcutlass_slash
p669
aI2
aI1
aI1
aF0.75
aI0
asI12102
(lp670
I13703
aI1
aNaNaI2
aI0
aI0
aI0
aI-45
aI0
aI0
aI0
aI100
aF0.25
aF0.5
aI6
aI0
aI0
aI0
aI0
aI1
aI0
aI0
aI0
aI0
aI26
aI0
aI0
aI1
aI0
aI0
aI1
aI3
aI0
aI-1
aI0
aF0.69999999999999996
aI1
aI0
aI1
aI1
aI0
aI0
aI0
aI0
aI0
aI0
aI0
aI1
aI1
aVcutlass_cleave
p671
aI5
aI1
aF1.25
aF1.125
aI0
asI12103
(lp672
I13703
aI1
aNaNaI4
aI0
aI0
aI0
aI-80
aI0
aI0
aI0
aI100
aF0.25
aF0.5
aI6
aI0
aI0
aI0
aI0
aI1
aI0
aI0
aI0
aI0
aI26
aI0
aI0
aI1
aI0
aI0
aI1
aI3
aI0
aI-1
aI0
aF0.59999999999999998
aI3
aI0
aI1
aI1
aI0
aI0
aI0
aI0
aI0
aI0
aI0
aI0
aI0
aVcutlass_flourish
p673
aI4
aI1
aF1.5
aF1.5800000000000001
aI0
asI12104
(lp674
I13703
aI1
aNaNaI6
aI0
aI0
aI0
aI-110
aI0
aI0
aI0
aI100
aF0.25
aF0.5
aI6
aI0
aI0
aI0
aI0
aI1
aI0
aI0
aI0
aI0
aI26
aI0
aI0
aI1
aI0
aI0
aI1
aI3
aI0
aI-1
aI0
aI1
aI1
aI0
aI1
aI1
aI0
aI0
aI0
aI0
aI0
aI0
aI0
aI0
aI0
aVcutlass_stab
p675
aI3
aI1
aF1.75
aF1.3
aI0
asI12105
(lp676
I13703
aI0
aNaNaI0
aI0
aI0
aI0
aI0
aI0
aI0
aI0
aI0
aF0.02
aI0
aI0
aI0
aI0
aI0
aI0
aI0
aI0
aI0
aI0
aI0
aI0
aI0
aI0
aI0
aI0
aI0
aI0
aI0
aI0
aI-1
aI0
aI0
aI0
aI0
aI3
aI0
aI0
aI0
aI0
aI0
aI0
aI0
aI0
aI1
aI1
aVcutlass_parry
p677
aI0
aI0
aI1
aI0
aI0
asI12106
(lp678
I13703
aI0
aNaNaI0
aI0
aI0
aI0
aI0
aI0
aI0
aI0
aI0
aF0.040000000000000001
aI0
aI0
aI0
aI0
aI0
aI0
aI0
aI0
aI0
aI0
aI0
aI0
aI0
aI0
aI0
aI0
aI0
aI0
aI0
aI0
aI-1
aI0
aI0
aI0
aI0
aI3
aI0
aI0
aI0
aI0
aI0
aI0
aI0
aI0
aI0
aI0
aVgrenade_toughness
p679
aI0
aI0
aI1
aI0
aI0
asI12107
(lp680
I13703
aI1
aNaNaI2
aI0
aI0
aI0
aI-60
aI0
aI0
aI0
aI100
aF0.25
aI15
aI6
aI15
aI0
aI0
aI0
aI1
aI0
aI1
aI0
aI0
aI0
aI0
aI0
aI1
aI0
aI0
aI0
aI0
aI0
aI-1
aI0
aF0.59999999999999998
aI1
aI0
aI2
aI0
aI0
aI0
aI0
aI0
aI0
aI0
aI0
aI1
aI1
aVcutlass_sweep
p681
aI29
aI1
aF1.25
aF1.4199999999999999
aI0
asI12108
(lp682
I13703
aI1
aNaNaI5
aI0
aI0
aI0
aI-25
aI0
aI0
aI0
aI100
aF0.25
aI60
aI6
aI0
aI0
aI0
aI0
aI1
aI0
aI0
aI0
aI0
aI6
aI0
aI0
aI1
aI0
aI0
aI1
aF2.5
aI0
aI-1
aI0
aF0.5
aI1
aI0
aI2
aI0
aI0
aI0
aI0
aI0
aI0
aI0
aI0
aI0
aI0
aVcutlass_brawl
p683
aI6
aI1
aF0.75
aF1.4099999999999999
aI0
asI12109
(lp684
I13703
aI1
aNaNaI8
aI0
aI0
aI0
aI0
aI0
aI0
aI0
aI100
aF0.25
aI30
aI12
aI0
aI0
aI0
aI0
aI1
aI0
aI0
aI0
aI0
aI10
aI0
aI0
aI1
aI0
aI0
aI1
aI30
aI0
aI-1
aI0
aF0.5
aI1
aI0
aI2
aI0
aI0
aI0
aI0
aI0
aI0
aI0
aI0
aI0
aI0
aVcutlass_taunt
p685
aI15
aI1
aI1
aF1.625
aI0
asI12110
(lp686
I13703
aI1
aNaNaI10
aI0
aI0
aI0
aI-200
aI0
aI0
aI0
aI100
aF0.25
aI30
aI6
aI0
aI0
aI0
aI0
aI1
aI0
aI0
aI0
aI0
aI0
aI0
aI0
aI1
aI0
aI0
aI0
aI0
aI0
aI-1
aI0
aF0.10000000000000001
aI5
aI0
aI2
aI0
aI0
aI0
aI0
aI0
aI0
aI0
aI0
aI0
aI0
aVcutlass_bladestorm
p687
aI7
aI1
aI5
aF4.1600000000000001
aI0
asI2360
(lp688
I13703
aI1
aNaI12100
aI1
aI0
aI0
aI0
aI-9
aI0
aI0
aI0
aI100
aF0.25
aF0.5
aI6
aI0
aI0
aI0
aI0
aI1
aI0
aI0
aI0
aI0
aI26
aI0
aI0
aI1
aI0
aI0
aI1
aI3
aI0
aI-1
aI0
aF0.19
aI1
aI0
aI1
aI1
aI0
aI0
aI0
aI0
aI0
aI0
aI0
aI1
aI1
aVcutlass_hack
p689
aI55
aI1
aF0.5
aF0.22500000000000001
aI0
asI2361
(lp690
I13703
aI1
aNaI12101
aI2
aI0
aI0
aI0
aI-24
aI0
aI0
aI0
aI100
aF0.25
aF0.5
aI6
aI0
aI0
aI0
aI0
aI1
aI0
aI0
aI0
aI0
aI26
aI0
aI0
aI1
aI0
aI0
aI1
aI3
aI0
aI-1
aI0
aF0.12
aI1
aI0
aI1
aI1
aI0
aI0
aI0
aI0
aI0
aI0
aI0
aI1
aI1
aVcutlass_slash
p691
aI56
aI1
aF1.0249999999999999
aF0.20000000000000001
aI0
asI2362
(lp692
I13703
aI1
aNaI12102
aI2
aI0
aI0
aI0
aI-34
aI0
aI0
aI0
aI100
aF0.25
aF0.5
aI6
aI0
aI0
aI0
aI0
aI1
aI0
aI0
aI0
aI0
aI26
aI0
aI0
aI1
aI0
aI0
aI1
aI3
aI0
aI-1
aI0
aF0.69999999999999996
aI3
aI0
aI1
aI1
aI0
aI0
aI0
aI0
aI0
aI0
aI0
aI1
aI1
aVcutlass_cleave
p693
aI57
aI1
aF0.875
aF0.47499999999999998
aI0
asI2363
(lp694
I13703
aI1
aNaI12103
aI4
aI0
aI0
aI0
aI-60
aI0
aI0
aI0
aI100
aF0.25
aF0.5
aI6
aI0
aI0
aI0
aI0
aI1
aI0
aI0
aI0
aI0
aI26
aI0
aI0
aI1
aI0
aI0
aI1
aI3
aI0
aI-1
aI0
aF0.59999999999999998
aI3
aI0
aI1
aI1
aI0
aI0
aI0
aI0
aI0
aI0
aI0
aI0
aI0
aVcutlass_flourish
p695
aI58
aI1
aF0.59999999999999998
aF0.65000000000000002
aI0
asI2364
(lp696
I13703
aI1
aNaI12104
aI6
aI0
aI0
aI0
aI-83
aI0
aI0
aI0
aI100
aF0.25
aF0.5
aI6
aI0
aI0
aI0
aI0
aI1
aI0
aI0
aI0
aI0
aI26
aI0
aI0
aI1
aI0
aI0
aI1
aI3
aI0
aI-1
aI0
aF0.59999999999999998
aI1
aI0
aI1
aI1
aI0
aI0
aI0
aI0
aI0
aI0
aI0
aI0
aI0
aVcutlass_stab
p697
aI59
aI1
aF1.3999999999999999
aF0.69999999999999996
aI0
asI2370
(lp698
I0
aI0
aNaNaI0
aI0
aI0
aI0
aI0
aI0
aI0
aI0
aI100
aF0.25
aI0
aI0
aI0
aI0
aI1
aI0
aI0
aI0
aI0
aI0
aI0
aI0
aI0
aI0
aI0
aI0
aI0
aI0
aI0
aI0
aI-1
aI0
aI0
aI1
aI1
aI1
aI1
aI0
aI0
aI0
aI0
aI0
aI0
aI0
aI0
aI0
aVstaff_blast
p699
aI45
aI2
aI1
aF2.625
aI0
asI12200
(lp700
I13704
aI2
aNaNaI2
aI0
aI0
aI0
aI-15
aI0
aI0
aI0
aI80
aF0.25
aF0.5
aI70
aI0
aI0
aI0
aI0
aI1
aI0
aI0
aI0
aI0
aI0
aI0
aI0
aI1
aI0
aI1
aI0
aI0
aI0
aI-1
aI0
aF0.10000000000000001
aI1
aI0
aI1
aI1
aI0
aI0
aI0
aI0
aI0
aI0
aI0
aI1
aI1
aVpistol_shoot
p701
aI0
aI0
aI1
aF0.55000000000000004
aI0
asI12201
(lp702
I13704
aI2
aNaNaI1
aI0
aI0
aI0
aI-20
aI0
aI0
aI0
aI80
aF0.25
aI0
aI0
aI0
aI0
aI0
aI0
aI1
aI0
aI0
aI0
aI0
aI0
aI0
aI0
aI1
aI0
aI1
aI0
aI0
aI0
aI-1
aI0
aI0
aI1
aI1
aI2
aI1
aI0
aI0
aI0
aI0
aI0
aI0
aI0
aI1
aI1
aVlead
p703
aI0
aI0
aI1
aI0
aI0
asI12202
(lp704
I13704
aI2
aI13901
aNaI2
aI0
aI0
aI0
aI-25
aI0
aI0
aI0
aI80
aF0.25
aI0
aI0
aI0
aI0
aI0
aI0
aI1
aI0
aI0
aI0
aI0
aI5
aI0
aI0
aI1
aI0
aI1
aI1
aI10
aI2
aI50
aI0
aI0
aI1
aI1
aI2
aI1
aI0
aI0
aI0
aI0
aI0
aI0
aI0
aI1
aI1
aVvenom
p705
aI8
aI0
aI1
aI0
aI0
asI12203
(lp706
I13704
aI2
aI13902
aNaI2
aI0
aI0
aI0
aI-35
aI0
aI0
aI0
aI80
aF0.25
aI0
aI0
aI0
aI0
aI0
aI0
aI1
aI0
aI0
aI0
aI0
aI14
aI0
aI0
aI1
aI0
aI1
aI1
aI4
aI0
aI50
aI0
aI0
aI1
aI1
aI2
aI1
aI0
aI0
aI0
aI0
aI0
aI0
aI0
aI1
aI1
aVsteel
p707
aI0
aI0
aI1
aI0
aI0
asI12204
(lp708
I13704
aI2
aI13903
aNaI2
aI0
aI0
aI0
aI-20
aI-35
aI0
aI0
aI80
aF0.25
aI0
aI0
aI0
aI0
aI0
aI0
aI1
aI0
aI0
aI0
aI0
aI0
aI0
aI0
aI1
aI0
aI1
aI0
aI0
aI0
aI50
aI0
aI0
aI1
aI1
aI2
aI1
aI0
aI0
aI0
aI0
aI0
aI0
aI0
aI0
aI0
aVgold
p709
aI0
aI0
aI1
aI0
aI0
asI12205
(lp710
I13704
aI2
aI13904
aNaI3
aI0
aI0
aI0
aI-50
aI0
aI0
aI0
aI80
aF0.25
aI0
aI0
aI0
aI0
aI0
aI0
aI1
aI0
aI0
aI0
aI0
aI16
aI0
aI0
aI1
aI0
aI1
aI0
aI0
aI0
aI50
aI0
aI0
aI1
aI1
aI2
aI1
aI0
aI0
aI0
aI0
aI0
aI0
aI0
aI0
aI0
aVsilver
p711
aI0
aI0
aI1
aI0
aI0
asI12206
(lp712
I13704
aI2
aI13905
aNaI3
aI0
aI0
aI0
aI-55
aI0
aI0
aI0
aI80
aF0.25
aI0
aI0
aI0
aI0
aI0
aI0
aI1
aI0
aI0
aI0
aI0
aI17
aI0
aI0
aI1
aI0
aI1
aI0
aI0
aI0
aI50
aI0
aI0
aI1
aI1
aI2
aI1
aI0
aI0
aI0
aI0
aI0
aI0
aI0
aI0
aI0
aViron
p713
aI0
aI0
aI1
aI0
aI0
asI12207
(lp714
I13704
aI0
aNaNaI0
aI0
aI0
aI0
aI0
aI0
aI0
aI0
aI0
aF0.050000000000000003
aI0
aI0
aI0
aI0
aI0
aI0
aI0
aI0
aI0
aI0
aI0
aI0
aI0
aI0
aI0
aI0
aI0
aI0
aI0
aI0
aI-1
aI0
aI0
aI0
aI0
aI3
aI0
aI0
aI0
aI0
aI0
aI0
aI0
aI0
aI0
aI0
aVpistol_sharp_shooter
p715
aI0
aI0
aI1
aI0
aI0
asI12208
(lp716
I13704
aI0
aNaNaI0
aI0
aI0
aI0
aI0
aI0
aI0
aI0
aI0
aF0.02
aI0
aI0
aI0
aI0
aI0
aI0
aI0
aI0
aI0
aI0
aI0
aI0
aI0
aI0
aI0
aI0
aI0
aI0
aI0
aI0
aI-1
aI0
aI0
aI0
aI0
aI3
aI0
aI0
aI0
aI0
aI0
aI0
aI0
aI0
aI0
aI0
aVdagger_dodge
p717
aI0
aI0
aI1
aI0
aI0
asI12209
(lp718
I13704
aI0
aNaNaI0
aI0
aI0
aI0
aI0
aI0
aI0
aI0
aI0
aF0.040000000000000001
aI0
aI0
aI0
aI0
aI0
aI0
aI0
aI0
aI0
aI0
aI0
aI0
aI0
aI0
aI0
aI0
aI0
aI0
aI0
aI0
aI-1
aI0
aI0
aI0
aI0
aI3
aI0
aI0
aI0
aI0
aI0
aI0
aI0
aI0
aI0
aI0
aVpistol_eagle_eye
p719
aI0
aI0
aI1
aI0
aI0
asI12210
(lp720
I13704
aI2
aNaNaI5
aI0
aI0
aI0
aI-15
aI0
aI0
aI0
aI110
aF0.25
aI1
aI100
aI0
aI0
aI0
aI0
aI1
aI0
aI0
aI0
aI0
aI7
aI0
aI0
aI1
aI0
aI1
aI1
aI3
aI0
aI-1
aI2
aF0.10000000000000001
aI1
aI0
aI1
aI1
aI0
aI0
aI0
aI0
aI0
aI0
aI0
aI1
aI1
aVpistol_take_aim
p721
aI0
aI0
aI1
aF0.55000000000000004
aI0
asI2000
(lp722
I13713
aI1
aNaNaI1
aI0
aI0
aI0
aI0
aI0
aI0
aI0
aI90
aF0.25
aI2
aI6
aI0
aI0
aI0
aI0
aI1
aI0
aI0
aI0
aI0
aI26
aI0
aI0
aI1
aI0
aI1
aI1
aI3
aI0
aI-1
aI0
aF0.10000000000000001
aI1
aI0
aI1
aI1
aI0
aI0
aI0
aI0
aI0
aI0
aI0
aI0
aI0
aVcutlass_stab
p723
aI0
aI1
aI1
aI0
aI0
asI2001
(lp724
I13713
aI1
aNaNaI1
aI0
aI0
aI0
aI0
aI0
aI0
aI0
aI90
aF0.25
aI2
aI6
aI0
aI0
aI0
aI0
aI1
aI0
aI0
aI0
aI0
aI26
aI0
aI0
aI1
aI0
aI1
aI1
aI3
aI0
aI-1
aI0
aF0.10000000000000001
aI1
aI0
aI1
aI1
aI0
aI0
aI0
aI0
aI0
aI0
aI0
aI0
aI0
aVcutlass_stab
p725
aI0
aI1
aI1
aI0
aI0
asI2002
(lp726
I13713
aI1
aNaNaI1
aI0
aI0
aI0
aI0
aI0
aI0
aI0
aI90
aF0.25
aI2
aI6
aI0
aI0
aI0
aI0
aI1
aI0
aI0
aI0
aI0
aI26
aI0
aI0
aI1
aI0
aI1
aI1
aI3
aI0
aI-1
aI0
aF0.10000000000000001
aI2
aI0
aI1
aI1
aI0
aI0
aI0
aI0
aI0
aI0
aI0
aI0
aI0
aVcutlass_stab
p727
aI2
aI1
aI2
aI0
aI0
asI2020
(lp728
I13713
aI3
aNaNaI1
aI0
aI0
aI0
aI0
aI0
aI0
aI0
aI70
aF0.25
aI5
aI150
aI0
aI0
aI0
aI0
aI1
aI0
aI0
aI0
aI0
aI21
aI0
aI0
aI1
aI0
aI0
aI1
aI20
aI2
aI-1
aI0
aF0.10000000000000001
aI1
aI0
aI1
aI1
aI0
aI0
aI0
aI0
aI0
aI0
aI0
aI0
aI0
aVcutlass_stab
p729
aI8
aI1
aI1
aI0
aI0
asI2021
(lp730
I13713
aI1
aNaNaI1
aI0
aI0
aI0
aI0
aI0
aI0
aI0
aI70
aF0.25
aI8
aI115
aI0
aI0
aI0
aI0
aI1
aI0
aI0
aI0
aI0
aI26
aI0
aI0
aI1
aI0
aI0
aI1
aI4
aI0
aI-1
aI0
aF1.1000000000000001
aI1
aI0
aI1
aI1
aI0
aI0
aI0
aI0
aI0
aI0
aI0
aI0
aI0
aVcutlass_stab
p731
aI0
aI1
aI1
aI0
aI0
asI2022
(lp732
I13713
aI1
aNaNaI1
aI0
aI0
aI0
aI0
aI0
aI0
aI0
aI100
aF0.25
aI20
aI110
aI0
aI0
aI0
aI0
aI1
aI0
aI0
aI0
aI0
aI26
aI0
aI0
aI1
aI0
aI0
aI1
aI4
aI0
aI-1
aI0
aI2
aI1
aI0
aI1
aI1
aI0
aI0
aI0
aI0
aI0
aI0
aI0
aI0
aI0
aVcutlass_stab
p733
aI0
aI1
aF0.25
aI0
aI0
asI2023
(lp734
I13713
aI1
aNaNaI1
aI0
aI0
aI0
aI0
aI0
aI0
aI0
aI100
aF0.25
aI8
aI110
aI0
aI0
aI0
aI0
aI1
aI0
aI0
aI0
aI0
aI26
aI0
aI0
aI1
aI0
aI0
aI1
aI4
aI0
aI-1
aI0
aF0.40000000000000002
aI1
aI0
aI1
aI1
aI0
aI0
aI0
aI0
aI0
aI0
aI0
aI0
aI0
aVcutlass_stab
p735
aI0
aI1
aF0.5
aI0
aI0
asI2024
(lp736
I13713
aI1
aNaNaI1
aI0
aI0
aI0
aI0
aI0
aI0
aI0
aI100
aF0.25
aI5
aI110
aI0
aI0
aI0
aI0
aI1
aI0
aI0
aI0
aI0
aI26
aI0
aI0
aI1
aI0
aI0
aI1
aI4
aI0
aI-1
aI0
aF3.2000000000000002
aI1
aI0
aI1
aI1
aI0
aI0
aI0
aI0
aI0
aI0
aI0
aI0
aI0
aVcutlass_stab
p737
aI0
aI1
aI3
aI0
aI0
asI2025
(lp738
I13713
aI1
aNaNaI1
aI0
aI0
aI0
aI0
aI0
aI0
aI0
aI80
aF0.25
aI5
aI115
aI0
aI0
aI0
aI0
aI1
aI0
aI0
aI0
aI0
aI26
aI0
aI0
aI1
aI0
aI0
aI1
aI4
aI0
aI-1
aI0
aF1.1000000000000001
aI1
aI0
aI1
aI1
aI0
aI0
aI0
aI0
aI0
aI0
aI0
aI0
aI0
aVcutlass_stab
p739
aI0
aI1
aF1.5
aI0
aI0
asI2026
(lp740
I13713
aI1
aNaNaI1
aI0
aI0
aI0
aI0
aI0
aI0
aI0
aI90
aF0.25
aI10
aI6
aI10
aI0
aI0
aI0
aI1
aI0
aI1
aI0
aI0
aI26
aI0
aI0
aI1
aI0
aI0
aI1
aI4
aI0
aI-1
aI0
aF0.29999999999999999
aI1
aI0
aI1
aI1
aI0
aI0
aI0
aI0
aI0
aI0
aI0
aI0
aI0
aVcutlass_stab
p741
aI0
aI1
aF0.75
aI0
aI0
asI2040
(lp742
I13713
aI1
aNaNaI1
aI0
aI0
aI0
aI0
aI0
aI0
aI0
aI80
aF0.25
aI30
aI15
aI0
aI0
aI0
aI0
aI1
aI0
aI3
aI0
aI0
aI7
aI0
aI0
aI1
aI0
aI0
aI1
aI5
aI0
aI-1
aI0
aF0.10000000000000001
aI1
aI0
aI1
aI1
aI0
aI0
aI0
aI0
aI0
aI0
aI0
aI0
aI0
aVcutlass_stab
p743
aI0
aI1
aI1
aI0
aI0
asI2041
(lp744
I13713
aI1
aNaNaI1
aI0
aI0
aI0
aI0
aI0
aI0
aI0
aI80
aF0.25
aI30
aI15
aI0
aI0
aI0
aI0
aI1
aI0
aI3
aI0
aI0
aI7
aI0
aI0
aI1
aI0
aI0
aI1
aI5
aI0
aI-1
aI0
aF0.10000000000000001
aI1
aI0
aI1
aI1
aI0
aI0
aI0
aI0
aI0
aI0
aI0
aI0
aI0
aVcutlass_stab
p745
aI0
aI1
aI1
aI0
aI0
asI2042
(lp746
I13713
aI1
aNaNaI1
aI0
aI0
aI0
aI0
aI0
aI0
aI0
aI80
aF0.25
aI2
aI10
aI0
aI0
aI0
aI0
aI1
aI0
aI0
aI0
aI0
aI26
aI0
aI0
aI1
aI0
aI0
aI1
aI3
aI0
aI-1
aI0
aF0.10000000000000001
aI1
aI0
aI1
aI1
aI0
aI0
aI0
aI0
aI0
aI0
aI0
aI0
aI0
aVcutlass_stab
p747
aI0
aI1
aF0.75
aI0
aI0
asI2043
(lp748
I13713
aI1
aNaNaI1
aI0
aI0
aI0
aI0
aI0
aI0
aI0
aI80
aF0.25
aI2
aI10
aI0
aI0
aI0
aI0
aI1
aI0
aI0
aI0
aI0
aI26
aI0
aI0
aI1
aI0
aI0
aI1
aI3
aI0
aI-1
aI0
aF0.10000000000000001
aI1
aI0
aI1
aI1
aI0
aI0
aI0
aI0
aI0
aI0
aI0
aI0
aI0
aVcutlass_stab
p749
aI0
aI1
aF0.75
aI0
aI0
asI2044
(lp750
I13713
aI1
aNaNaI1
aI0
aI0
aI0
aI0
aI0
aI0
aI0
aI80
aF0.25
aI5
aI12
aI0
aI0
aI0
aI0
aI1
aI0
aI2
aI0
aI0
aI7
aI0
aI0
aI1
aI0
aI0
aI1
aI10
aI0
aI-1
aI0
aF0.10000000000000001
aI1
aI0
aI1
aI1
aI0
aI0
aI0
aI0
aI0
aI0
aI0
aI0
aI0
aVcutlass_stab
p751
aI0
aI1
aF1.25
aI0
aI0
asI2045
(lp752
I13713
aI1
aNaNaI1
aI0
aI0
aI0
aI0
aI0
aI0
aI0
aI80
aF0.25
aI5
aI12
aI0
aI0
aI0
aI0
aI1
aI0
aI2
aI0
aI0
aI7
aI0
aI0
aI1
aI0
aI0
aI1
aI10
aI0
aI-1
aI0
aF0.10000000000000001
aI1
aI0
aI1
aI1
aI0
aI0
aI0
aI0
aI0
aI0
aI0
aI0
aI0
aVcutlass_stab
p753
aI0
aI1
aF1.25
aI0
aI0
asI2046
(lp754
I13713
aI1
aNaNaI1
aI0
aI0
aI0
aI0
aI0
aI0
aI0
aI100
aF0.25
aI15
aI25
aI25
aI0
aI0
aI0
aI1
aI0
aI1
aI0
aI0
aI156
aI0
aI0
aI1
aI0
aI0
aI1
aI6
aI0
aI-1
aI0
aF1.4299999999999999
aI1
aI0
aI1
aI1
aI0
aI0
aI0
aI0
aI0
aI0
aI0
aI0
aI0
aVcutlass_stab
p755
aI42
aI1
aF0.25
aI0
aI0
as.